(lp0
V\u30a2\u30fc\u30af
p1
aV\u30a2\u30fc\u30af\u30b3\u30a2
p2
aV\u30a2\u30fc\u30af\u30e9\u30f3\u30c9\u30b5\u30fc\u30d3\u30b9
p3
aV\u30a2\u30fc\u30af\u30e9\u30f3\u30c9\u30b5\u30ab\u30e2\u30c8
p4
aV\u30a2\u30fc\u30eb\u30b7\u30fc\u30b3\u30a2
p5
aV\u30a2\u30fc\u30eb\u30c6\u30c3\u30af\u30fb\u30a6\u30a8\u30ce
p6
aV\u30a2\u30fc\u30d0\u30f3\u30e9\u30a4\u30d5
p7
aV\u30a2\u30fc\u30c8\u30cd\u30a4\u30c1\u30e3\u30fc
p8
aV\u30a2\u30fc\u30d0\u30cd\u30c3\u30c8\u30b3\u30fc\u30dd\u30ec\u30fc\u30b7\u30e7\u30f3
p9
aV\u30a2\u30fc\u30c8\u30b9\u30d1\u30fc\u30af\u30db\u30fc\u30eb\u30c7\u30a3\u30f3\u30b0\u30b9
p10
aV\u30a2\u30fc\u30eb\u30fb\u30a8\u30b9\u30fb\u30b7\u30fc
p11
aV\uff32\uff33\u3000\uff34\uff45\uff43\uff48\uff4e\uff4f\uff4c\uff4f\uff47\uff49\uff45\uff53
p12
aV\u30a2\u30fc\u30eb\u30d3\u30d0\u30f3
p13
aV\u30a2\u30fc\u30eb\u30a8\u30a4\u30b8
p14
aV\u30a2\u30fc\u30b9\u88fd\u85ac
p15
aV\uff32\uff2b\uff22\u6bce\u65e5\u653e\u9001
p16
aV\u30a2\u30fc\u30ad\u30c6\u30af\u30c4\u30fb\u30b9\u30bf\u30b8\u30aa\u30fb\u30b8\u30e3\u30d1\u30f3
p17
aV\u30a2\u30fc\u30ec\u30b9\u30c6\u30a3
p18
aV\u30e6\u30d3\u30c6\u30c3\u30af
p19
aV\u611b\u773c
p20
aV\u30a2\u30a4\u30b1\u30a4
p21
aV\u30a2\u30a4\u30a8\u30fc\u30b0\u30eb\u30fc\u30d7
p22
aV\u30a2\u30a4\u30fb\u30a2\u30fc\u30eb\u30b8\u30e3\u30d1\u30f3\u30db\u30fc\u30eb\u30c7\u30a3\u30f3\u30b0\u30b9
p23
aV\u30a2\u30a4\u30ab\u5de5\u696d
p24
aV\u30a2\u30a4\u30a8\u30c3\u30af\u30b9\u30fb\u30ca\u30ec\u30c3\u30b8
p25
aV\u30a2\u30a4\u30fb\u30a8\u30b9\u30fb\u30d3\u30fc
p26
aV\uff29\uff2d\uff36
p27
aV\u30a2\u30a4\u30fb\u30aa\u30fc\u30fb\u30c7\u30fc\u30bf\u6a5f\u5668
p28
aV\u30a2\u30a4\u30fb\u30b1\u30a4\u30fb\u30b1\u30a4
p29
aV\u611b\u4e09\u5de5\u696d
p30
aV\u30a2\u30a4\u30b5\u30f3\u30c6\u30af\u30ce\u30ed\u30b8\u30fc
p31
aV\u30a2\u30a4\u30b9\u30bf\u30a4\u30eb
p32
aV\u30a2\u30a4\u30bb\u30a4\u85ac\u5c40
p33
aV\u85cd\u6fa4\u8b49\u5238
p34
aV\uff29\uff23\uff24\uff21\u30db\u30fc\u30eb\u30c7\u30a3\u30f3\u30b0\u30b9
p35
aV\u30a2\u30a4\u30b7\u30f3\u7cbe\u6a5f
p36
aV\uff29\uff2a\uff34\u30c6\u30af\u30ce\u30ed\u30b8\u30fc\u30db\u30fc\u30eb\u30c7\u30a3\u30f3\u30b0\u30b9
p37
aV\u30d0\u30a4\u30af\u738b\uff06\u30ab\u30f3\u30d1\u30cb\u30fc
p38
aV\u30a2\u30a4\u30c0\u30a8\u30f3\u30b8\u30cb\u30a2\u30ea\u30f3\u30b0
p39
aV\u30a2\u30a4\u30b3\u30e0
p40
aV\u611b\u5149\u96fb\u6c17
p41
aV\u611b\u77e5\u9280\u884c
p42
aV\u30a2\u30a4\u30c6\u30a3\u30e1\u30c7\u30a3\u30a2
p43
aV\uff29\uff34\u30db\u30fc\u30eb\u30c7\u30a3\u30f3\u30b0\u30b9
p44
aV\u611b\u77e5\u6642\u8a08\u96fb\u6a5f
p45
aV\uff21\uff34\u30b0\u30eb\u30fc\u30d7
p46
aV\uff29\uff22\uff2a
p47
aV\u30a2\u30a4\u30fb\u30d4\u30fc\u30fb\u30a8\u30b9
p48
aV\u30a2\u30a4\u30c1\u3000\u30b3\u30fc\u30dd\u30ec\u30fc\u30b7\u30e7\u30f3
p49
aV\u30b3\u30cd\u30af\u30b7\u30aa
p50
aV\u611b\u77e5\u96fb\u6a5f
p51
aV\u611b\u77e5\u88fd\u92fc
p52
aV\u30a2\u30a4\u30fb\u30c6\u30c3\u30af
p53
aV\u65e5\u672c\u30a2\u30bb\u30c3\u30c8\u30de\u30fc\u30b1\u30c6\u30a3\u30f3\u30b0
p54
aV\u30a2\u30a4\u30ec\u30c3\u30af\u30b9
p55
aV\u30a2\u30a4\u30ec\u30c3\u30d7
p56
aV\u30a2\u30a4\u30d5\u30a3\u30b9\u30b8\u30e3\u30d1\u30f3
p57
aV\u30a2\u30a4\u30d5\u30ea\u30fc\u30af\u30db\u30fc\u30eb\u30c7\u30a3\u30f3\u30b0\u30b9
p58
aV\u30a2\u30a4\u30ed\u30e0\u30db\u30fc\u30eb\u30c7\u30a3\u30f3\u30b0\u30b9
p59
aV\u30a2\u30a4\u30eb
p60
aV\u30a2\u30a4\u30cd\u30b9
p61
aV\u30a2\u30a4\u30cd\u30c3\u30c8
p62
aV\u30a2\u30a4\u30d3\u30fc\u5316\u7ca7\u54c1
p63
aV\u30a2\u30a4\u30db\u30f3
p64
aV\u3042\u3044\u3000\u30db\u30fc\u30eb\u30c7\u30a3\u30f3\u30b0\u30b9
p65
aV\u30a2\u30a4\u30d5\u30eb
p66
aV\u30bb\u30d6\u30f3\u9280\u884c
p67
aV\u30a2\u30a4\u30f3\u30d5\u30a1\u30fc\u30de\u30b7\u30fc\u30ba
p68
aV\u30a2\u30a6\u30c8\u30bd\u30fc\u30b7\u30f3\u30b0
p69
aV\uff21\uff2f\uff2b\uff29\u30db\u30fc\u30eb\u30c7\u30a3\u30f3\u30b0\u30b9
p70
aV\u30a2\u30aa\u30ad\u30b9\u30fc\u30d1\u30fc
p71
aV\u30a2\u30aa\u30a4\u96fb\u5b50
p72
aV\u9752\u5c71\u5546\u4e8b
p73
aV\uff21\uff2f\uff29\u3000\uff30\uff52\uff4f\uff0e
p74
aV\u30a2\u30a6\u30f3\u30b3\u30f3\u30b5\u30eb\u30c6\u30a3\u30f3\u30b0
p75
aV\u30a2\u30f2\u30cf\u30bf
p76
aV\u30a2\u30a8\u30ea\u30a2
p77
aV\u9752\u68ee\u9280\u884c
p78
aV\u30a2\u30af\u30ed\u30c7\u30a3\u30a2
p79
aV\u30a2\u30af\u30bb\u30eb\u30de\u30fc\u30af
p80
aV\u30a2\u30af\u30c8\u30b3\u30fc\u30eb
p81
aV\u30a2\u30ad\u30ec\u30b9
p82
aV\u30a2\u30af\u30b7\u30fc\u30ba
p83
aV\u66d9\u30d6\u30ec\u30fc\u30ad\u5de5\u696d
p84
aV\u30a2\u30b3\u30fc\u30c7\u30a3\u30a2\u30fb\u30b4\u30eb\u30d5
p85
aV\u8d64\u962a\u9435\u5de5\u6240
p86
aV\u30f4\u30a3\u30a2\u30fb\u30db\u30fc\u30eb\u30c7\u30a3\u30f3\u30b0\u30b9
p87
aV\u30a2\u30af\u30bb\u30eb
p88
aV\u30a2\u30af\u30e2\u30b9
p89
aV\u79cb\u5ddd\u7267\u5712
p90
aV\u30a2\u30b0\u30ed\u3000\u30ab\u30cd\u30b7\u30e7\u30a6
p91
aV\uff21\uff23\uff23\uff25\uff33\uff33
p92
aV\u79cb\u7530\u9280\u884c
p93
aV\u30a2\u30b5\u30ac\u30df
p94
aV\u30a2\u30b5\u30c4\u30fc\u3000\u30c7\u30a3\u30fb\u30b1\u30a4
p95
aV\u6dfa\u6cbc\u7d44
p96
aV\u3042\u3055\u3072
p97
aV\u30a2\u30b5\u30d2\u885b\u9676
p98
aV\u65ed\u5316\u5b66\u5de5\u696d
p99
aV\u671d\u65e5\u5370\u5237
p100
aV\u30a2\u30b5\u30ab\u7406\u7814
p101
aV\u6d45\u9999\u5de5\u696d
p102
aV\u671d\u65e5\u30a4\u30f3\u30c6\u30c3\u30af
p103
aV\u30a2\u30b3\u30e0
p104
aV\u30a2\u30b5\u30c3\u30af\u30b9
p105
aV\u65ed\u30b3\u30f3\u30af\u30ea\u30fc\u30c8\u5de5\u696d
p106
aV\u65ed\u60c5\u5831\u30b5\u30fc\u30d3\u30b9
p107
aV\u671d\u65e5\u30cd\u30c3\u30c8
p108
aV\u30a2\u30b5\u30d2\u30b0\u30eb\u30fc\u30d7\u30db\u30fc\u30eb\u30c7\u30a3\u30f3\u30b0\u30b9
p109
aV\u65ed\u5316\u6210
p110
aV\u65ed\u30c0\u30a4\u30e4\u30e2\u30f3\u30c9\u5de5\u696d
p111
aV\u671d\u65e5\u5de5\u696d
p112
aV\uff21\uff24\uff25\uff2b\uff21
p113
aV\u65ed\u7cbe\u6a5f\u5de5\u696d
p114
aV\u65ed\u785d\u5b50
p115
aV\u671d\u65e5\u5de5\u696d\u793e
p116
aV\u65ed\u6709\u6a5f\u6750\u5de5\u696d
p117
aV\u671d\u65e5\u30e9\u30d0\u30fc
p118
aV\u30a2\u30b5\u30f3\u30c6
p119
aV\u30a2\u30b7\u30c3\u30af\u30b9
p120
aV\u82a6\u68ee\u5de5\u696d
p121
aV\u30a2\u30b5\u30d2\u30da\u30f3
p122
aV\u30a2\u30b5\u30d2\u30db\u30fc\u30eb\u30c7\u30a3\u30f3\u30b0\u30b9
p123
aV\u30a2\u30b7\u30fc\u30c9\u30db\u30fc\u30eb\u30c7\u30a3\u30f3\u30b0\u30b9
p124
aV\u30d7\u30ed\u30cd\u30af\u30b5\u30b9
p125
aV\u30a2\u30b8\u30a2\u822a\u6e2c
p126
aV\u671d\u65e5\u653e\u9001
p127
aV\u65ed\u677e\u98df\u54c1
p128
aV\u8db3\u5229\u30db\u30fc\u30eb\u30c7\u30a3\u30f3\u30b0\u30b9
p129
aV\u30a2\u30b8\u30e5\u30d0\u30f3\u30b3\u30b9\u30e1\u30b8\u30e3\u30d1\u30f3
p130
aV\u30a2\u30b9\u30ab
p131
aV\u5473\u306e\u7d20
p132
aV\u30e8\u30f3\u30c9\u30b7\u30fc\u30db\u30fc\u30eb\u30c7\u30a3\u30f3\u30b0\u30b9
p133
aV\u30a2\u30b9\u30af\u30eb
p134
aV\uff21\uff33\uff34\uff29
p135
aV\u30a8\u30fc\u30a2\u30f3\u30c9\u30a8\u30fc\u30de\u30c6\u30ea\u30a2\u30eb
p136
aV\u30a2\u30b9\u30ab\u30cd\u30c3\u30c8
p137
aV\u3042\u3058\u304b\u3093
p138
aV\u30a2\u30ba\u30b8\u30a7\u30f3\u30c8
p139
aV\u30a2\u30b9\u30b3\u30c3\u30c8
p140
aV\u30a2\u30bc\u30a2\u30b9
p141
aV\u30a2\u30b9\u30c8\u30de\u30c3\u30af\u30b9
p142
aV\u30a2\u30ba\u30de\u30cf\u30a6\u30b9
p143
aV\u3044\u3061\u3054\u30b0\u30eb\u30fc\u30d7\u30db\u30fc\u30eb\u30c7\u30a3\u30f3\u30b0\u30b9
p144
aV\u30a2\u30b9\u30e9\u30dd\u30fc\u30c8\u30fb\u30c0\u30a4\u30cb\u30f3\u30b0
p145
aV\u6771\u6d77\u904b
p146
aV\u9ebb\u751f\u30d5\u30aa\u30fc\u30e0\u30af\u30ea\u30fc\u30c8
p147
aV\u30a2\u30c4\u30ae
p148
aV\uff21\uff23\uff2b\u30b0\u30eb\u30fc\u30d7
p149
aV\u30a2\u30c3\u30d7\u30eb\u30a4\u30f3\u30bf\u30fc\u30ca\u30b7\u30e7\u30ca\u30eb
p150
aV\u30a2\u30c9\u30c6\u30c3\u30af
p151
aV\u30a2\u30c9\u30c6\u30c3\u30af\u3000\u30d7\u30e9\u30ba\u30de\u3000\u30c6\u30af\u30ce\u30ed\u30b8\u30fc
p152
aV\u30a2\u30c8\u30e0\u30ea\u30d3\u30f3\u30c6\u30c3\u30af
p153
aV\u30a2\u30c8\u30e9
p154
aV\u30a2\u30c9\u30bd\u30eb\u65e5\u9032
p155
aV\u30a2\u30c8\u30df\u30af\u30b9
p156
aV\u30a2\u30c9\u30a6\u30a7\u30a4\u30ba
p157
aV\u30a2\u30c9\u30f4\u30a1\u30f3
p158
aV\u30a2\u30c8\u30e0
p159
aV\u30a2\u30c6\u30af\u30c8
p160
aV\u30a2\u30c7\u30e9\u30f3\u30b9
p161
aV\u30a2\u30d0\u30fc\u30eb\u30c7\u30fc\u30bf
p162
aV\u30a2\u30d1\u30de\u30f3\u30b7\u30e7\u30c3\u30d7\u30db\u30fc\u30eb\u30c7\u30a3\u30f3\u30b0\u30b9
p163
aV\u30a2\u30c9\u30d0\u30f3\u30c6\u30b9\u30c8
p164
aV\u30a2\u30c9\u30d0\u30f3\u30c6\u30c3\u30b8\u30ea\u30b9\u30af\u30de\u30cd\u30b8\u30e1\u30f3\u30c8
p165
aV\u7a74\u5439\u8208\u7523
p166
aV\u30a2\u30cb\u30b3\u30e0\u3000\u30db\u30fc\u30eb\u30c7\u30a3\u30f3\u30b0\u30b9
p167
aV\u30a2\u30cd\u30b9\u30c8\u5ca9\u7530
p168
aV\u30a2\u30d3\u30b9\u30c8
p169
aV\u30a2\u30c9\u30d0\u30f3\u30b9\u30af\u30ea\u30a8\u30a4\u30c8
p170
aV\u30a2\u30d3\u30c3\u30af\u30b9
p171
aV\u30a2\u30c9\u30d0\u30f3\u30b9\u30c8\u30fb\u30e1\u30c7\u30a3\u30a2
p172
aV\u30a2\u30c9\u30d9\u30f3\u30c1\u30e3\u30fc
p173
aV\u30a2\u30c9\u30e1\u30c6\u30c3\u30af
p174
aV\uff21\uff33\uff2a
p175
aV\u30a2\u30d4\u30c3\u30af\u30e4\u30de\u30c0
p176
aV\u30a2\u30de\u30ce
p177
aV\u30a2\u30df\u30bf\u30db\u30fc\u30eb\u30c7\u30a3\u30f3\u30b0\u30b9
p178
aV\u3042\u307f\u3084\u304d\u4ead
p179
aV\u30a2\u30df\u30e5\u30fc\u30ba
p180
aV\uff21\uff26\uff23\uff0d\uff28\uff24\u30a2\u30e0\u30b9\u30e9\u30a4\u30d5\u30b5\u30a4\u30a8\u30f3\u30b9
p181
aV\u30a2\u30e1\u30a4\u30ba
p182
aV\u30a2\u30d7\u30e9\u30b9\u30d5\u30a3\u30ca\u30f3\u30b7\u30e3\u30eb
p183
aV\u30a2\u30a4\u30ca\u30dc\u30db\u30fc\u30eb\u30c7\u30a3\u30f3\u30b0\u30b9
p184
aV\u30a2\u30d7\u30ea\u30c3\u30af\u30b9\uff29\uff30\u30db\u30fc\u30eb\u30c7\u30a3\u30f3\u30b0\u30b9
p185
aV\u30a2\u30d7\u30e9\u30a4\u30c9
p186
aV\u30a2\u30de\u30ac\u30b5
p187
aV\u30a2\u30de\u30c6\u30a4
p188
aV\u30a2\u30de\u30ca
p189
aV\u30eb\u30fc\u30c7\u30f3\u30fb\u30db\u30fc\u30eb\u30c7\u30a3\u30f3\u30b0\u30b9
p190
aV\u30a2\u30de\u30c0\u30db\u30fc\u30eb\u30c7\u30a3\u30f3\u30b0\u30b9
p191
aV\u6709\u6ca2\u88fd\u4f5c\u6240
p192
aV\u30a2\u30eb\u30a4\u30f3\u30b3
p193
aV\u30e6\u30cb\u30d0\u30fc\u30b5\u30eb\u30a8\u30f3\u30bf\u30fc\u30c6\u30a4\u30f3\u30e1\u30f3\u30c8
p194
aV\u30a2\u30eb\u30c1\u30b6\u30cd\u30c3\u30c8\u30ef\u30fc\u30af\u30b9
p195
aV\u65b0\u5bb6\u5de5\u696d
p196
aV\u30a2\u30ea\u30a2\u30b1\u30b8\u30e3\u30d1\u30f3
p197
aV\u30a2\u30e9\u30a4\u30c9\u30a2\u30fc\u30ad\u30c6\u30af\u30c4
p198
aV\u30a2\u30e9\u30a4\u30c9\u30c6\u30ec\u30b7\u30b9\u30db\u30fc\u30eb\u30c7\u30a3\u30f3\u30b0\u30b9
p199
aV\u30a2\u30eb\u30c6\u30c3\u30af
p200
aV\u30a2\u30eb\u30c7\u30d7\u30ed
p201
aV\u8352\u5ddd\u5316\u5b66\u5de5\u696d
p202
aV\u3042\u3089\u305f
p203
aV\u30a2\u30eb\u30b4\u30b0\u30e9\u30d5\u30a3\u30c3\u30af\u30b9
p204
aV\u3042\u308a\u304c\u3068\u3046\u30b5\u30fc\u30d3\u30b9
p205
aV\u30a2\u30eb\u30c8\u30ca\u30fc
p206
aV\u30a2\u30eb\u30d3\u30b9
p207
aV\u30a2\u30eb\u30d5\u30a1
p208
aV\u30a2\u30eb\u30d5\u30a1\u30b7\u30b9\u30c6\u30e0\u30ba
p209
aV\u30a2\u30eb\u30d5\u30ec\u30c3\u30b5\u3000\u30db\u30fc\u30eb\u30c7\u30a3\u30f3\u30b0\u30b9
p210
aV\u30a2\u30eb\u30b3\u30cb\u30c3\u30af\u30b9
p211
aV\u30a2\u30eb\u30c6\u3000\u30b5\u30ed\u30f3\u3000\u30db\u30fc\u30eb\u30c7\u30a3\u30f3\u30b0\u30b9
p212
aV\u30a2\u30eb\u30d1\u30a4\u30f3
p213
aV\u30a2\u30eb\u30d0\u30a4\u30c8\u30bf\u30a4\u30e0\u30b9
p214
aV\u30a2\u30eb\u30d7\u30b9\u6280\u7814
p215
aV\u30a2\u30eb\u30d0\u30c3\u30af
p216
aV\u30a2\u30eb\u30d7\u30b9\u7269\u6d41
p217
aV\uff21\uff2c\uff22\uff25\uff32\uff34
p218
aV\u30a2\u30eb\u30da\u30f3
p219
aV\u963f\u6ce2\u9280\u884c
p220
aV\u963f\u6ce2\u88fd\u7d19
p221
aV\u30a2\u30eb\u30d7\u30b9\u96fb\u6c17
p222
aV\u30a2\u30eb\u30d5\u30a1\u30dd\u30ea\u30b9
p223
aV\u30a2\u30eb\u30d5\u30a1\uff23\uff4f
p224
aV\u30a2\u30eb\u30d5\u30a1\u30b0\u30eb\u30fc\u30d7
p225
aV\u30a2\u30eb\u30d5\u30a1\u30af\u30b9\u30fb\u30d5\u30fc\u30c9\u30fb\u30b7\u30b9\u30c6\u30e0
p226
aV\u30a2\u30eb\u30e1\u30bf\u30c3\u30af\u30b9
p227
aV\u30a2\u30eb\u30e1\u30c7\u30a3\u30aa
p228
aV\uff23\uff06\uff27\u30b7\u30b9\u30c6\u30e0\u30ba
p229
aV\u30d1\u30b9
p230
aV\u30a4\u30fc\u30fb\u30ae\u30e3\u30e9\u30f3\u30c6\u30a3
p231
aV\u30a4\u30fc\u30b0\u30e9\u30f3\u30c9
p232
aV\uff25\uff2d\u30b7\u30b9\u30c6\u30e0\u30ba
p233
aV\u30a4\u30fc\u30fb\u30ab\u30e0\u30c8\u30a5\u30eb\u30fc
p234
aV\u30a4\u30fc\u30fb\u30ac\u30fc\u30c7\u30a3\u30a2\u30f3
p235
aV\u30a2\u30f3\u30c9\u30fc\u30eb
p236
aV\uff21\uff2d\uff22\uff29\uff34\uff29\uff2f\uff2e
p237
aV\u30a2\u30f3\u30ea\u30c4
p238
aV\uff25\uff32\uff29\u30db\u30fc\u30eb\u30c7\u30a3\u30f3\u30b0\u30b9
p239
aV\u30a4\u30fc\u30b5\u30dd\u30fc\u30c8\u30ea\u30f3\u30af
p240
aV\u30a4\u30fc\u30b0\u30eb\u5de5\u696d
p241
aV\u5b89\u697d\u4ead
p242
aV\uff25\u30fb\uff2a\u30db\u30fc\u30eb\u30c7\u30a3\u30f3\u30b0\u30b9
p243
aV\u30a2\u30f3\u30b8\u30a7\u30b9\u3000\uff2d\uff27
p244
aV\uff45\uff22\uff21\uff33\uff25
p245
aV\u30a4\u30fc\u30d6\u30c3\u30af\u30a4\u30cb\u30b7\u30a2\u30c6\u30a3\u30d6\u30b8\u30e3\u30d1\u30f3
p246
aV\u30a4\u30fc\u30ec\u30c3\u30af\u30b9
p247
aV\u30a4\u30fc\u30c9
p248
aV\u3044\u3044\u751f\u6d3b
p249
aV\u98ef\u7530\u30b0\u30eb\u30fc\u30d7\u30db\u30fc\u30eb\u30c7\u30a3\u30f3\u30b0\u30b9
p250
aV\u30eb\u30cd\u30b5\u30b9\u30a4\u30fc\u30b9\u30c8\u30f3
p251
aV\uff25\u30b9\u30c8\u30a2\u30fc
p252
aV\uff25\uff30\uff33\u30db\u30fc\u30eb\u30c7\u30a3\u30f3\u30b0\u30b9
p253
aV\u30a4\u30fc\u30c8\u30a2\u30f3\u30c9
p254
aV\u30a2\u30b8\u30a7\u30c3\u30c8
p255
aV\u30a4\u30fc\u30bf\u30fc\u96fb\u6a5f\u5de5\u696d
p256
aV\u6681\u98ef\u5cf6\u5de5\u696d
p257
aV\u6c60\u4e0a\u901a\u4fe1\u6a5f
p258
aV\u6c60\u7530\u6cc9\u5dde\u30db\u30fc\u30eb\u30c7\u30a3\u30f3\u30b0\u30b9
p259
aV\u30a4\u30af\u30e8
p260
aV\u30a4\u30b0\u30cb\u30b9
p261
aV\u30a2\u30ba\u30ef\u30f3
p262
aV\u533b\u5b66\u751f\u7269\u5b66\u7814\u7a76\u6240
p263
aV\u30a4\u30aa\u30f3\u30d5\u30a1\u30f3\u30bf\u30b8\u30fc
p264
aV\u98ef\u91ce\u6d77\u904b
p265
aV\u30a4\u30a8\u30ed\u30fc\u30cf\u30c3\u30c8
p266
aV\u30a4\u30aa\u30f3\u30e2\u30fc\u30eb
p267
aV\u30a4\u30aa\u30f3\u30d5\u30a3\u30ca\u30f3\u30b7\u30e3\u30eb\u30b5\u30fc\u30d3\u30b9
p268
aV\u77f3\u4e95\u5de5\u4f5c\u7814\u7a76\u6240
p269
aV\u77f3\u4e95\u98df\u54c1
p270
aV\u30a4\u30b5\u30e0\u5857\u6599
p271
aV\uff29\uff28\uff29
p272
aV\u77f3\u539f\u7523\u696d
p273
aV\u77f3\u5ddd\u88fd\u4f5c\u6240
p274
aV\u77f3\u4e95\u9435\u5de5\u6240
p275
aV\u77f3\u585a\u785d\u5b50
p276
aV\u77f3\u4e95\u8868\u8a18
p277
aV\u77f3\u57a3\u98df\u54c1
p278
aV\u3044\u3059\u309e\u81ea\u52d5\u8eca
p279
aV\u30a4\u30ba\u30df
p280
aV\u77f3\u539f\u30b1\u30df\u30ab\u30eb
p281
aV\u77f3\u5149\u5546\u4e8b
p282
aV\u4f0a\u52e2\u6e7e\u6d77\u904b
p283
aV\u30a4\u30bd\u30e9\u30a4\u30c8\u5de5\u696d
p284
aV\uff29\uff24\uff25\uff23
p285
aV\u4f0a\u52e2\u5316\u5b66\u5de5\u696d
p286
aV\u4e95\u95a2\u8fb2\u6a5f
p287
aV\u30a4\u30c1\u30b1\u30f3
p288
aV\u30a4\u30c1\u30ab\u30ef
p289
aV\u5e02\u9032\u30db\u30fc\u30eb\u30c7\u30a3\u30f3\u30b0\u30b9
p290
aV\u30a4\u30c1\u30cd\u30f3\u30db\u30fc\u30eb\u30c7\u30a3\u30f3\u30b0\u30b9
p291
aV\uff2a\u30c8\u30e9\u30b9\u30c8
p292
aV\u4e00\u516d\u5802
p293
aV\u58f1\u756a\u5c4b
p294
aV\u5e02\u5149\u5de5\u696d
p295
aV\u4e00\u4f11
p296
aV\u4e95\u7b52\u5c4b
p297
aV\u4e00\u6b63\u84b2\u927e
p298
aV\u3044\u3061\u3088\u3057\u8a3c\u5238
p299
aV\u4f0a\u85e4\u5fe0\u30c6\u30af\u30ce\u30bd\u30ea\u30e5\u30fc\u30b7\u30e7\u30f3\u30ba
p300
aV\u4f0a\u85e4\u5fe0\u30a8\u30cd\u30af\u30b9
p301
aV\u4f0a\u85e4\u5712
p302
aV\u4f0a\u85e4\u5fe0\u98df\u54c1
p303
aV\u51fa\u5149\u8208\u7523
p304
aV\u4f0a\u85e4\u30cf\u30e0
p305
aV\u30a4\u30c8\u30fc\u30ad
p306
aV\u30a4\u30c7\u30a2\u30a4\u30f3\u30bf\u30fc\u30ca\u30b7\u30e7\u30ca\u30eb
p307
aV\u30a4\u30c8\u30fc\u30e8\u30fc\u30ae\u30e7\u30fc
p308
aV\u4f0a\u85e4\u5fe0\u5546\u4e8b
p309
aV\u56e0\u5e61\u96fb\u6a5f\u7523\u696d
p310
aV\u30a4\u30ca\u30ea\u30b5\u30fc\u30c1
p311
aV\u30a4\u30cf\u30e9\u30b1\u30df\u30ab\u30eb\u5de5\u696d
p312
aV\u30a4\u30cf\u30e9\u30b5\u30a4\u30a8\u30f3\u30b9
p313
aV\u30a4\u30ce\u30c6\u30c3\u30af
p314
aV\u7a32\u7551\u7523\u696d
p315
aV\u4e7e\u6c7d\u8239
p316
aV\u3044\u306a\u3052\u3084
p317
aV\u7a32\u8449\u88fd\u4f5c\u6240
p318
aV\u30a4\u30d3\u30c7\u30f3
p319
aV\u30c6\u30af\u30ce\u30b9\u30de\u30fc\u30c8
p320
aV\u4eca\u4ed9\u96fb\u6a5f\u88fd\u4f5c\u6240
p321
aV\u4eca\u6751\u8a3c\u5238
p322
aV\u30a4\u30d5\u30b8\u7523\u696d
p323
aV\u4e95\u6751\u5c4b\u30b0\u30eb\u30fc\u30d7
p324
aV\u30a4\u30e1\u30fc\u30b8\u60c5\u5831\u958b\u767a
p325
aV\u30a4\u30ea\u30bd\u96fb\u5b50\u5de5\u696d
p326
aV\u30a4\u30de\u30b8\u30cb\u30a2
p327
aV\u30a4\u30e0\u30e9\u5c01\u7b52
p328
aV\u30a4\u30e1\u30fc\u30b8\u3000\u30ef\u30f3
p329
aV\u4f0a\u4e88\u9280\u884c
p330
aV\u30a4\u30ef\u30d6\u30c1
p331
aV\u30a4\u30f3\u30b5\u30a4\u30c8
p332
aV\u30a4\u30f3\u30b9\u30da\u30c3\u30af
p333
aV\u5ca9\u5d0e\u96fb\u6c17
p334
aV\u5ca9\u585a\u88fd\u83d3
p335
aV\u5ca9\u8c37\u7523\u696d
p336
aV\u5ca9\u5d0e\u901a\u4fe1\u6a5f
p337
aV\u30a4\u30ef\u30ad
p338
aV\u5ca9\u4e95\u30b3\u30b9\u30e2\u30db\u30fc\u30eb\u30c7\u30a3\u30f3\u30b0\u30b9
p339
aV\u5ca9\u624b\u9280\u884c
p340
aV\u30a4\u30f3\u30bf\u30fc\u30e9\u30a4\u30d5\u30db\u30fc\u30eb\u30c7\u30a3\u30f3\u30b0\u30b9
p341
aV\u30a4\u30f3\u30bf\u30fc\u30ef\u30fc\u30af\u30b9
p342
aV\u30a4\u30f3\u30c6\u30ea\u30b8\u30a7\u30f3\u30c8\u3000\u30a6\u30a7\u30a4\u30d6
p343
aV\u30a4\u30f3\u30c6\u30ea\u30c3\u30af\u30b9
p344
aV\u30a4\u30f3\u30c8\u30e9\u30f3\u30b9
p345
aV\u30a4\u30f3\u30bf\u30fc\u30cd\u30c3\u30c8\u30a4\u30cb\u30b7\u30a2\u30c6\u30a3\u30d6
p346
aV\u30a4\u30f3\u30bf\u30fc\u30b9\u30da\u30fc\u30b9
p347
aV\u30a4\u30f3\u30d5\u30a9\u30b3\u30e0
p348
aV\u30a4\u30f3\u30c6\u30fc\u30b8\u30db\u30fc\u30eb\u30c7\u30a3\u30f3\u30b0\u30b9
p349
aV\u30a8\u30fc\u30d3\u30fc\u30b7\u30fc\u30fb\u30de\u30fc\u30c8
p350
aV\uff27\uff2d\uff2f\u30a4\u30f3\u30bf\u30fc\u30cd\u30c3\u30c8
p351
aV\u30a4\u30f3\u30bf\u30fc\u30a2\u30af\u30b7\u30e7\u30f3
p352
aV\u30a4\u30f3\u30bf\u30fc\u30c8\u30ec\u30fc\u30c9
p353
aV\u30a6\u30a3\u30eb\u30bd\u30f3\u30fb\u30e9\u30fc\u30cb\u30f3\u30b0\u3000\u30ef\u30fc\u30eb\u30c9\u30ef\u30a4\u30c9
p354
aV\u30a6\u30a3\u30eb
p355
aV\u30a6\u30a4\u30f3\u30c6\u30b9\u30c8
p356
aV\u30a6\u30a4\u30f3\u30fb\u30d1\u30fc\u30c8\u30ca\u30fc\u30ba
p357
aV\u30a6\u30a3\u30ba
p358
aV\u30a6\u30a3\u30eb\u30b0\u30eb\u30fc\u30d7
p359
aV\u30a4\u30f3\u30d5\u30a9\u30c6\u30ea\u30a2
p360
aV\u30a4\u30f3\u30d5\u30a9\u30de\u30fc\u30c8
p361
aV\u30a4\u30f3\u30d5\u30a9\u30e1\u30fc\u30b7\u30e7\u30f3\u30af\u30ea\u30a8\u30fc\u30c6\u30a3\u30d6
p362
aV\u30a4\u30f3\u30d7\u30ec\u30b9\u30db\u30fc\u30eb\u30c7\u30a3\u30f3\u30b0\u30b9
p363
aV\u30a6\u30a4\u30eb\u30b3\u30db\u30fc\u30eb\u30c7\u30a3\u30f3\u30b0\u30b9
p364
aV\u30a4\u30f3\u30d5\u30a9\u30e1\u30fc\u30b7\u30e7\u30f3\u30fb\u30c7\u30a3\u30d9\u30ed\u30d7\u30e1\u30f3\u30c8
p365
aV\u30a6\u30a7\u30b6\u30fc\u30cb\u30e5\u30fc\u30ba
p366
aV\u30a6\u30a8\u30b9\u30b3\u30db\u30fc\u30eb\u30c7\u30a3\u30f3\u30b0\u30b9
p367
aV\u30a6\u30a7\u30c3\u30ba
p368
aV\u4e0a\u6751\u5de5\u696d
p369
aV\u4e0a\u539f\u6210\u5546\u4e8b
p370
aV\u30af\u30eb\u30fc\u30ba
p371
aV\u30a6\u30a8\u30b9\u30c8\u30db\u30fc\u30eb\u30c7\u30a3\u30f3\u30b0\u30b9
p372
aV\u690d\u6728\u7d44
p373
aV\uff35\uff25\uff38
p374
aV\u690d\u677e\u5546\u4f1a
p375
aV\u9b5a\u529b
p376
aV\u3046\u304b\u3044
p377
aV\u30a6\u30a7\u30eb\u30cd\u30c3\u30c8
p378
aV\u30a6\u30a9\u30fc\u30bf\u30fc\u30c0\u30a4\u30ec\u30af\u30c8
p379
aV\u5185\u7530\u6d0b\u884c
p380
aV\u30a6\u30c1\u30e4\u30de\u30db\u30fc\u30eb\u30c7\u30a3\u30f3\u30b0\u30b9
p381
aV\u5b87\u5fb3
p382
aV\u30a6\u30b7\u30aa\u96fb\u6a5f
p383
aV\u30a6\u30c1\u30c0\u30a8\u30b9\u30b3
p384
aV\u5b87\u91ce\u6fa4\u7d44\u9435\u5de5\u6240
p385
aV\u9b5a\u559c
p386
aV\u30a6\u30c3\u30c9\u30d5\u30ec\u30f3\u30ba
p387
aV\u30f4\u30a3\u30f3\u30af\u30b9
p388
aV\u30a8\u30fc\u30a2\u30a4\u30c6\u30a4\u30fc
p389
aV\u30a8\u30fc\u30b6\u30a4
p390
aV\uff21\uff27\uff33
p391
aV\u30a8\u30fc\u30fb\u30a2\u30f3\u30c9\u30fb\u30c7\u30a4
p392
aV\uff21\uff2e\uff21\uff30
p393
aV\u5b87\u90e8\u8208\u7523
p394
aV\u30a6\u30e9\u30a4
p395
aV\uff35\uff2c\uff33\u30b0\u30eb\u30fc\u30d7
p396
aV\u6885\u306e\u82b1
p397
aV\u30f4\u30a3\u30ec\u30c3\u30b8\u30f4\u30a1\u30f3\u30ac\u30fc\u30c9\u30b3\u30fc\u30dd\u30ec\u30fc\u30b7\u30e7\u30f3
p398
aV\u5bcc\u58eb\u77f3\u6cb9
p399
aV\u6804\u7814\u5316\u5b66
p400
aV\u30a8\u30a4\u30b8\u30b9
p401
aV\u30a8\u30fc\u30fb\u30c7\u30a3\u30fc\u30fb\u30ef\u30fc\u30af\u30b9
p402
aV\u30a8\u30fc\u30fb\u30d4\u30fc\u30ab\u30f3\u30d1\u30cb\u30fc
p403
aV\u30a8\u30fc\u30b8\u30fc\u30d4\u30fc
p404
aV\u30a8\u30a4\u30a2\u30f3\u30c9\u30c6\u30a3\u30fc
p405
aV\u6c38\u5927\u5316\u5de5
p406
aV\u30a8\u30a2\u30fb\u30a6\u30a9\u30fc\u30bf\u30fc
p407
aV\u30a8\u30a4\u30c1\u30fb\u30a2\u30a4\u30fb\u30a8\u30b9
p408
aV\u30a8\u30a4\u30b1\u30f3\u5de5\u696d
p409
aV\u30a8\u30fc\u30ef\u30f3\u7cbe\u5bc6
p410
aV\u6c38\u5927\u7523\u696d
p411
aV\u6804\u5149\u30db\u30fc\u30eb\u30c7\u30a3\u30f3\u30b0\u30b9
p412
aV\u30a8\u30a4\u30d9\u30c3\u30af\u30b9\u30fb\u30b0\u30eb\u30fc\u30d7\u30fb\u30db\u30fc\u30eb\u30c7\u30a3\u30f3\u30b0\u30b9
p413
aV\uff21\uff49\uff4d\uff49\uff4e\uff47
p414
aV\u6fa4\u7530\u30db\u30fc\u30eb\u30c7\u30a3\u30f3\u30b0\u30b9
p415
aV\u30a8\u30a4\u30c1\u30a2\u30f3\u30c9\u30a8\u30d5
p416
aV\u30a8\u30a4\u30b8\u30a2
p417
aV\u82f1\u548c
p418
aV\u30a8\u30a4\u30c6\u30a3\u30f3\u30b0
p419
aV\u30a8\u30af\u30bb\u30eb
p420
aV\u30a8\u30a4\u30c1\u30fc\u30e0
p421
aV\u30a8\u30ad\u30b5\u30a4\u30c8
p422
aV\u30a8\u30b3\u30df\u30c3\u30af
p423
aV\u99c5\u63a2
p424
aV\u30a8\u30b3\u30b0\u30ea\u30fc\u30f3
p425
aV\u30a8\u30af\u30b9\u30c8\u30ea\u30fc\u30e0
p426
aV\uff33\uff32\uff21\u30db\u30fc\u30eb\u30c7\u30a3\u30f3\u30b0\u30b9
p427
aV\u6c5f\u5d0e\u30b0\u30ea\u30b3
p428
aV\u30a8\u30af\u30bb\u30c7\u30a3
p429
aV\u30a8\u30b9\u30a2\u30fc\u30eb\u30b8\u30fc\u30bf\u30ab\u30df\u30e4
p430
aV\u30c0\u30f3\u30ed\u30c3\u30d7\u30b9\u30dd\u30fc\u30c4
p431
aV\u30a8\u30b3\u30fc\u30c8\u30ec\u30fc\u30c7\u30a3\u30f3\u30b0
p432
aV\u30a8\u30b3\u30b9
p433
aV\uff33\uff2d\uff23
p434
aV\u30a8\u30b9\u30af\u30ea
p435
aV\u30a8\u30b9\u30b1\u30fc\u5316\u7814
p436
aV\u30a8\u30b9\u30af\u30ed\u30fc\u30fb\u30a8\u30fc\u30b8\u30a7\u30f3\u30c8\u30fb\u30b8\u30e3\u30d1\u30f3
p437
aV\uff33\uff25\uff23\u30ab\u30fc\u30dc\u30f3
p438
aV\uff33\uff26\uff30\u30c0\u30a4\u30cb\u30f3\u30b0
p439
aV\uff33\uff2d\uff2b
p440
aV\u30a8\u30b9\u30a8\u30eb\u30c7\u30a3\u30fc
p441
aV\u30a8\u30b9\u30a4\u30fc
p442
aV\u30a8\u30b9\u30fb\u30a8\u30e0\u30fb\u30a8\u30b9
p443
aV\u30a8\u30b9\u30b1\u30fc\u30a2\u30a4
p444
aV\u30a8\u30b9\u30b1\u30fc\u30a8\u30ec\u30af\u30c8\u30ed\u30cb\u30af\u30b9
p445
aV\u30a8\u30b9\u30b1\u30a4\u30b8\u30e3\u30d1\u30f3
p446
aV\u30e4\u30de\u30c0\u30fb\u30a8\u30b9\u30d0\u30a4\u30a8\u30eb\u30db\u30fc\u30e0
p447
aV\uff33\uff22\uff33\u30db\u30fc\u30eb\u30c7\u30a3\u30f3\u30b0\u30b9
p448
aV\uff33\uff30\uff2b
p449
aV\u30a8\u30b9\u30d7\u30fc\u30eb
p450
aV\u30a8\u30b9\u30c6\u30a3\u30c3\u30af
p451
aV\u30a8\u30b9\u30fb\u30c7\u30a3\u30fc\u30fb\u30a8\u30b9\u3000\u30d0\u30a4\u30aa\u30c6\u30c3\u30af
p452
aV\u30f1\u30b9\u30d3\u30fc\u98df\u54c1
p453
aV\u30a8\u30b9\u30c6\u30fc
p454
aV\uff21\uff53\uff0d\uff4d\uff45\u30a8\u30b9\u30c6\u30fc\u30eb
p455
aV\u30d5\u30a9\u30fc\u30b7\u30fc\u30ba\u30db\u30fc\u30eb\u30c7\u30a3\u30f3\u30b0\u30b9
p456
aV\u30a8\u30b9\u30c8\u30e9\u30b9\u30c8
p457
aV\uff53\uff2d\uff45\uff44\uff49\uff4f
p458
aV\u30a8\u30c7\u30a3\u30aa\u30f3
p459
aV\u30a8\u30ca\u30ea\u30b9
p460
aV\uff45\uff4e\uff49\uff53\uff48
p461
aV\u30b9\u30af\u30a6\u30a7\u30a2\u30fb\u30a8\u30cb\u30c3\u30af\u30b9\u30fb\u30db\u30fc\u30eb\u30c7\u30a3\u30f3\u30b0\u30b9
p462
aV\u30a8\u30cc\u30a8\u30d5\u56de\u8def\u8a2d\u8a08\u30d6\u30ed\u30c3\u30af
p463
aV\uff2e\uff25\uff23\u30ad\u30e3\u30d4\u30bf\u30eb\u30bd\u30ea\u30e5\u30fc\u30b7\u30e7\u30f3
p464
aV\u30a8\u30cc\u30a2\u30a4\u30c7\u30a4
p465
aV\u30a8\u30b9\u30e9\u30a4\u30f3
p466
aV\u30a8\u30c3\u30af\u30b9\u30cd\u30c3\u30c8
p467
aV\u30a8\u30c3\u30c1\u30fb\u30b1\u30fc\u30fb\u30a8\u30b9
p468
aV\u30eb\u30cd\u30b5\u30b9\u30a8\u30ec\u30af\u30c8\u30ed\u30cb\u30af\u30b9
p469
aV\u30a8\u30cb\u30b0\u30e2
p470
aV\u30a8\u30ce\u30e2\u30c8
p471
aV\u30a8\u30cc\u30fb\u30c7\u30fc\u30bd\u30d5\u30c8\u30a6\u30a7\u30a2
p472
aV\uff2e\uff2f\uff2b
p473
aV\u640d\u4fdd\u30b8\u30e3\u30d1\u30f3\u65e5\u672c\u8208\u4e9c\u30db\u30fc\u30eb\u30c7\u30a3\u30f3\u30b0\u30b9
p474
aV\u30a8\u30cc\u30fb\u30c6\u30a3\u30fb\u30c6\u30a3\u30fb\u30c7\u30fc\u30bf\u30fb\u30a4\u30f3\u30c8\u30e9\u30de\u30fc\u30c8
p475
aV\u30a8\u30cc\u30fb\u30c6\u30a3\u30fb\u30c6\u30a3\u30fb\u30c7\u30fc\u30bf
p476
aV\u30a8\u30cc\u30b8\u30a7\u30fc\u30b1\u30fc
p477
aV\u30a8\u30cc\u30a2\u30a4\u30b7\u30fb\u30aa\u30fc\u30c8\u30c6\u30c3\u30af
p478
aV\uff2e\uff34\uff2e
p479
aV\u30a8\u30cc\u30fb\u30c6\u30a3\u30fb\u30c6\u30a3\u90fd\u5e02\u958b\u767a
p480
aV\uff2e\uff34\uff34\u30c9\u30b3\u30e2
p481
aV\uff26\uff23\uff2d
p482
aV\u30a8\u30d5\u30fb\u30b7\u30fc\u30fb\u30b7\u30fc
p483
aV\u834f\u539f\u88fd\u4f5c\u6240
p484
aV\uff2a\uff23\uff35
p485
aV\u611b\u5a9b\u9280\u884c
p486
aV\u30a8\u30d5\u30a2\u30f3\u30c9\u30a8\u30e0
p487
aV\u30a8\u30cc\u30fb\u30d4\u30fc\u30fb\u30b7\u30fc
p488
aV\uff2e\u30fb\u30d5\u30a3\u30fc\u30eb\u30c9
p489
aV\u30a8\u30d5\u30c6\u30a3\u30b3\u30df\u30e5\u30cb\u30b1\u30fc\u30b7\u30e7\u30f3\u30ba
p490
aV\u30a8\u30d0\u30e9\u98df\u54c1\u5de5\u696d
p491
aV\u30a8\u30d5\u30fb\u30b8\u30a7\u30fc\u30fb\u30cd\u30af\u30b9\u30c8
p492
aV\u834f\u539f\u5b9f\u696d
p493
aV\uff26\uff26\uff32\uff29
p494
aV\uff2d\uff29\uff25\u30b3\u30fc\u30dd\u30ec\u30fc\u30b7\u30e7\u30f3
p495
aV\u30a8\u30e0\u30a2\u30c3\u30d7
p496
aV\uff2d\uff06\uff21\u30ad\u30e3\u30d4\u30bf\u30eb\u30d1\u30fc\u30c8\u30ca\u30fc\u30ba
p497
aV\u30a8\u30e0\u30b1\u30a4\u30b7\u30b9\u30c6\u30e0
p498
aV\u30a8\u30d5\u30c6\u30c3\u30af
p499
aV\uff26\uff30\uff27
p500
aV\u30a8\u30e0\u30b1\u30fc\u7cbe\u5de5
p501
aV\u30a8\u30e0\u30c6\u30a3\u30fc\u30a2\u30a4
p502
aV\u30a8\u30d7\u30b3
p503
aV\uff2d\uff32\uff34
p504
aV\uff2d\uff23\uff2a
p505
aV\u30ec\u30aa\u30d1\u30ec\u30b9\uff12\uff11
p506
aV\u30a8\u30e0\u30b8\u30fc\u30db\u30fc\u30e0
p507
aV\u30a8\u30d5\u30d4\u30b3
p508
aV\u30a8\u30eb\u30ca\u30fc
p509
aV\u30a8\u30f3\u30b7\u30e5\u30a6
p510
aV\u9060\u5dde\u30c8\u30e9\u30c3\u30af
p511
aV\u56f3\u7814\u30a8\u30eb\u30df\u30c3\u30af
p512
aV\u30a8\u30ec\u30b3\u30e0
p513
aV\u30a8\u30e0\u30d3\u30fc\u30a8\u30b9
p514
aV\u30a8\u30e9\u30f3
p515
aV\u30a8\u30f3\u30fb\u30b8\u30e3\u30d1\u30f3
p516
aV\u30a4\u30f3\u30c6\u30a2\u30fb\u30db\u30fc\u30eb\u30c7\u30a3\u30f3\u30b0\u30b9
p517
aV\u30a8\u30ea\u30a2\u30ea\u30f3\u30af
p518
aV\u30a8\u30ea\u30a2\u30af\u30a8\u30b9\u30c8
p519
aV\u5869\u6c34\u6e2f\u7cbe\u7cd6
p520
aV\u30a8\u30f3\u30ab\u30ec\u30c3\u30b8\u30fb\u30c6\u30af\u30ce\u30ed\u30b8
p521
aV\u30aa\u30fc\u30a6\u30a4\u30eb
p522
aV\u30aa\u30fc\u30a8\u30b9
p523
aV\u9060\u85e4\u7167\u660e
p524
aV\u9060\u85e4\u88fd\u4f5c\u6240
p525
aV\u30aa\u30fc\u30a8\u30b9\u30b8\u30fc
p526
aV\uff2f\uff33\uff27\u30b3\u30fc\u30dd\u30ec\u30fc\u30b7\u30e7\u30f3
p527
aV\u30aa\u30fc\u30af\u30de
p528
aV\u30aa\u30fc\u30af\u30ef
p529
aV\u30a8\u30f3\u30d0\u30a4\u30aa\u30fb\u30db\u30fc\u30eb\u30c7\u30a3\u30f3\u30b0\u30b9
p530
aV\u30a8\u30f3\u30d3\u30d7\u30ed\u30fb\u30db\u30fc\u30eb\u30c7\u30a3\u30f3\u30b0\u30b9
p531
aV\u30a8\u30f3\u30c1\u30e7\u30fc
p532
aV\u30a8\u30f3\u30d7\u30e9\u30b9
p533
aV\u30aa\u30fc\u30a4\u30ba\u30df
p534
aV\u30aa\u30fc\u30af\u30d5\u30a1\u30f3
p535
aV\u30aa\u30fc\u30c8\u30a6\u30a7\u30fc\u30d6
p536
aV\uff2f\uff24\uff2b\u30bd\u30ea\u30e5\u30fc\u30b7\u30e7\u30f3\u30ba
p537
aV\u30aa\u30fc\u30c8\u30d0\u30c3\u30af\u30b9\u30bb\u30d6\u30f3
p538
aV\u30aa\u30fc\u30b7\u30e3\u30f3\u30b7\u30b9\u30c6\u30e0
p539
aV\u30aa\u30fc\u30c6\u30c3\u30af
p540
aV\u30aa\u30fc\u30c7\u30ea\u30c3\u30af
p541
aV\uff27\uff0d\uff17\u30db\u30fc\u30eb\u30c7\u30a3\u30f3\u30b0\u30b9
p542
aV\u30aa\u30fc\u30b1\u30fc\u98df\u54c1\u5de5\u696d
p543
aV\u30aa\u30fc\u30ca\u30df
p544
aV\u30aa\u30fc\u30bf\u30b1
p545
aV\u30aa\u30fc\u30d3\u30c3\u30af
p546
aV\u30aa\u30fc\u30d3\u30c3\u30af\u30d3\u30b8\u30cd\u30b9\u30b3\u30f3\u30b5\u30eb\u30bf\u30f3\u30c8
p547
aV\u30aa\u30fc\u30d0\u30eb
p548
aV\u30aa\u30fc\u30d3\u30b9
p549
aV\u30aa\u30fc\u30d9\u30af\u30b9
p550
aV\u30aa\u30fc\u30df\u30b1\u30f3\u30b7
p551
aV\u30aa\u30fc\u30eb\u30a2\u30d0\u30a6\u30c8
p552
aV\u30aa\u30fc\u30cf\u30b7\u30c6\u30af\u30cb\u30ab
p553
aV\u30aa\u30fc\u30cd\u30c3\u30af\u30b9
p554
aV\u30aa\u30fc\u30ca\u30f3\u30d0
p555
aV\u5c3e\u5bb6\u7523\u696d
p556
aV\u30aa\u30fc\u30d7\u30f3\u30cf\u30a6\u30b9
p557
aV\u5927\u77f3\u7523\u696d
p558
aV\u5927\u6cc9\u88fd\u4f5c\u6240
p559
aV\u30aa\u30a4\u30ec\u30b9\u5de5\u696d
p560
aV\uff2f\uff21\uff34\u30a2\u30b0\u30ea\u30aa
p561
aV\u738b\u5b50\u30db\u30fc\u30eb\u30c7\u30a3\u30f3\u30b0\u30b9
p562
aV\u30aa\u30a6\u30c1\u30fc\u30ce
p563
aV\u30aa\u30a6\u30b1\u30a4\u30a6\u30a7\u30a4\u30f4
p564
aV\u5fdc\u7528\u5730\u8cea
p565
aV\u5fdc\u7528\u6280\u8853
p566
aV\u738b\u5c06\u30d5\u30fc\u30c9\u30b5\u30fc\u30d3\u30b9
p567
aV\u30aa\u30a4\u30b7\u30c3\u30af\u30b9
p568
aV\u5927\u5206\u9280\u884c
p569
aV\u5927\u962a\u6a5f\u5de5
p570
aV\u5927\u962a\u5de5\u6a5f
p571
aV\u30aa\u30fc\u30a8\u30e0\u30c4\u30fc\u30cd\u30c3\u30c8\u30ef\u30fc\u30af
p572
aV\u5927\u962a\u74e6\u65af
p573
aV\u5927\u4e95\u96fb\u6c17
p574
aV\uff2f\uff35\uff27\u30db\u30fc\u30eb\u30c7\u30a3\u30f3\u30b0\u30b9
p575
aV\u5927\u5009\u5de5\u696d
p576
aV\u65e5\u672c\u53d6\u5f15\u6240\u30b0\u30eb\u30fc\u30d7
p577
aV\u5927\u6728
p578
aV\u5927\u57a3\u5171\u7acb\u9280\u884c
p579
aV\u5927\u585a\u5546\u4f1a
p580
aV\u5927\u585a\u30db\u30fc\u30eb\u30c7\u30a3\u30f3\u30b0\u30b9
p581
aV\u5927\u6238\u5c4b\u30db\u30fc\u30eb\u30c7\u30a3\u30f3\u30b0\u30b9
p582
aV\u30aa\u30aa\u30d0
p583
aV\u5927\u6797\u7d44
p584
aV\u5927\u6797\u9053\u8def
p585
aV\u5927\u7530\u82b1\u304d
p586
aV\u5927\u8c37\u5de5\u696d
p587
aV\u5927\u962a\u88fd\u9435
p588
aV\u5927\u962a\u6709\u6a5f\u5316\u5b66\u5de5\u696d
p589
aV\u5927\u5d0e\u96fb\u6c17\u5de5\u696d
p590
aV\u5927\u5d0e\u30a8\u30f3\u30b8\u30cb\u30a2\u30ea\u30f3\u30b0
p591
aV\u5927\u5149
p592
aV\u5927\u585a\u5bb6\u5177
p593
aV\u5ca1\u85e4\u30db\u30fc\u30eb\u30c7\u30a3\u30f3\u30b0\u30b9
p594
aV\u5ca1\u91ce\u30d0\u30eb\u30d6\u88fd\u9020
p595
aV\u5ca1\u90e8
p596
aV\u5ca1\u6751\u88fd\u4f5c\u6240
p597
aV\u5ca1\u4e09\u8a3c\u5238\u30b0\u30eb\u30fc\u30d7
p598
aV\u30aa\u30ab\u30c0\u30a2\u30a4\u30e8\u30f3
p599
aV\u5927\u6751\u7d19\u696d
p600
aV\u5927\u672c\u7d44
p601
aV\u30aa\u30ab\u30e2\u30c8
p602
aV\u5ca1\u672c\u785d\u5b50
p603
aV\u5ca1\u672c\u5de5\u4f5c\u6a5f\u68b0\u88fd\u4f5c\u6240
p604
aV\u5927\u68ee\u5c4b
p605
aV\u5927\u76db\u5de5\u696d
p606
aV\u5ca1\u5c71\u770c\u8ca8\u7269\u904b\u9001
p607
aV\u5ca1\u5c71\u88fd\u7d19
p608
aV\u5c0f\u5009\u30af\u30e9\u30c3\u30c1
p609
aV\uff2d\uff29\uff23\uff33\u5316\u5b66
p610
aV\u6c96\u7e04\u9280\u884c
p611
aV\u6c96\u7e04\u30bb\u30eb\u30e9\u30fc\u96fb\u8a71
p612
aV\u5ca1\u8c37\u96fb\u6a5f\u7523\u696d
p613
aV\u5ca1\u8c37\u92fc\u6a5f
p614
aV\u6c96\u96fb\u6c17\u5de5\u696d
p615
aV\u6c96\u96fb\u7dda
p616
aV\u5965\u6751\u7d44
p617
aV\u6c96\u7e04\u96fb\u529b
p618
aV\u5c0f\u7530\u6025\u96fb\u9244
p619
aV\u5c0f\u7530\u539f\u30a8\u30f3\u30b8\u30cb\u30a2\u30ea\u30f3\u30b0
p620
aV\u5c0f\u91ce\u7523\u696d
p621
aV\u5c0f\u91ce\u6e2c\u5668
p622
aV\u5c0f\u7530\u539f\u6a5f\u5668
p623
aV\u5c0f\u91ce\u85ac\u54c1\u5de5\u696d
p624
aV\u5c0f\u91ce\u5efa
p625
aV\u30aa\u30cf\u30e9
p626
aV\u5c0f\u6d25\u7523\u696d
p627
aV\uff2f\uff23\uff28\uff29\u30db\u30fc\u30eb\u30c7\u30a3\u30f3\u30b0\u30b9
p628
aV\u5927\u548c\u5c0f\u7530\u6025\u5efa\u8a2d
p629
aV\u30aa\u30ea\u30a8\u30f3\u30bf\u30eb\u30e9\u30f3\u30c9
p630
aV\u30aa\u30ea\u30a8\u30f3\u30c8\u30b3\u30fc\u30dd\u30ec\u30fc\u30b7\u30e7\u30f3
p631
aV\u30aa\u30ea\u30b3\u30f3
p632
aV\u30aa\u30ea\u30b8\u30ca\u30eb\u8a2d\u8a08
p633
aV\u30aa\u30d7\u30c8\u30a8\u30ec\u30af\u30c8\u30ed\u30cb\u30af\u30b9
p634
aV\u30aa\u30d7\u30c8\u30ed\u30e0
p635
aV\u30aa\u30d7\u30c6\u30c3\u30af\u30b9\u30fb\u30a8\u30d5\u30a8\u30fc
p636
aV\uff2f\uff22\uff21\uff32\uff21\u3000\uff27\uff32\uff2f\uff35\uff30
p637
aV\u30aa\u30d7\u30c6\u30a3\u30e0
p638
aV\u30aa\u30d7\u30c6\u30c3\u30af\u30b9
p639
aV\u30aa\u30ea\u30a8\u30f3\u30bf\u30eb\u30c1\u30a8\u30f3\u5de5\u696d
p640
aV\u30aa\u30d7\u30c8\u30db\u30fc\u30eb\u30c7\u30a3\u30f3\u30b0
p641
aV\u30aa\u30e0\u30ed\u30f3
p642
aV\u30aa\u30f3\u30ad\u30e8\u30fc
p643
aV\u30aa\u30f3\u30b3\u30bb\u30e9\u30d4\u30fc\u30fb\u30b5\u30a4\u30a8\u30f3\u30b9
p644
aV\u30aa\u30f3\u30b3\u30ea\u30b9\u30d0\u30a4\u30aa\u30d5\u30a1\u30fc\u30de
p645
aV\u30aa\u30ea\u30f3\u30d1\u30b9
p646
aV\uff2f\uff4c\uff59\uff4d\uff50\uff49\uff43\u30b0\u30eb\u30fc\u30d7
p647
aV\u97f3\u901a
p648
aV\u30aa\u30f3\u30ea\u30fc
p649
aV\u30aa\u30eb\u30c8\u30d7\u30e9\u30b9
p650
aV\u5c3e\u5f35\u7cbe\u6a5f
p651
aV\u30aa\u30f3\u30ef\u30fc\u30c9\u30db\u30fc\u30eb\u30c7\u30a3\u30f3\u30b0\u30b9
p652
aV\u30aa\u30ea\u30b8\u30f3\u96fb\u6c17
p653
aV\u30aa\u30ea\u30d0\u30fc
p654
aV\u30aa\u30eb\u30ac\u30ce
p655
aV\u30aa\u30ea\u30c3\u30af\u30b9
p656
aV\u52a0\u8cc0\u96fb\u5b50
p657
aV\u67ff\u5b89\u672c\u5e97
p658
aV\u30ab\u30fc\u30ea\u30c3\u30c8\u30db\u30fc\u30eb\u30c7\u30a3\u30f3\u30b0\u30b9
p659
aV\u30ab\u30a4\u30aa\u30e0\u30fb\u30d0\u30a4\u30aa\u30b5\u30a4\u30a8\u30f3\u30b9
p660
aV\u8cb7\u53d6\u738b\u56fd
p661
aV\u30ab\u30a4\u30ce\u30b9
p662
aV\u6d77\u5e06
p663
aV\u30ab\u30ab\u30af\u30b3\u30e0
p664
aV\u30ab\u30fc\u30e1\u30a4\u30c8
p665
aV\u82b1\u738b
p666
aV\u82b1\u6708\u5712\u89b3\u5149
p667
aV\u30ab\u30fc\u30c7\u30a3\u30ca\u30eb
p668
aV\u79d1\u7814\u88fd\u85ac
p669
aV\u9e7f\u5150\u5cf6\u9280\u884c
p670
aV\u30ab\u30b4\u30e1
p671
aV\u6cb3\u897f\u5de5\u696d
p672
aV\u30ab\u30b7\u30aa\u8a08\u7b97\u6a5f
p673
aV\u52a0\u5730\u30c6\u30c3\u30af
p674
aV\u30ab\u30c3\u30d1\u30fb\u30af\u30ea\u30a8\u30a4\u30c8\u30db\u30fc\u30eb\u30c7\u30a3\u30f3\u30b0\u30b9
p675
aV\u9e7f\u5cf6\u5efa\u8a2d
p676
aV\u7247\u5009\u5de5\u696d
p677
aV\u7247\u5009\u30c1\u30c3\u30ab\u30ea\u30f3
p678
aV\u30ab\u30c3\u30b7\u30fc\u30ca\u30fb\u30a4\u30af\u30b9\u30b7\u30fc
p679
aV\u30ab\u30ca\u30c7\u30f3
p680
aV\u52a0\u85e4\u88fd\u4f5c\u6240
p681
aV\uff2b\uff21\uff24\uff2f\uff2b\uff21\uff37\uff21\u30fb\uff24\uff37\uff21\uff2e\uff27\uff2f
p682
aV\u30ab\u30ca\u30ec\u96fb\u6c17
p683
aV\u52a0\u85e4\u7523\u696d
p684
aV\u6842\u5ddd\u96fb\u6a5f
p685
aV\u30ab\u30ca\u30e2\u30c8
p686
aV\u304b\u3069\u3084\u88fd\u6cb9
p687
aV\u795e\u5948\u5ddd\u4e2d\u592e\u4ea4\u901a
p688
aV\u30a2\u30c9\u30d0\u30cd\u30af\u30b9
p689
aV\u517c\u677e\u65e5\u7523\u8fb2\u6797
p690
aV\u30ab\u30cd\u30e8\u30a6
p691
aV\u91d1\u4e0b\u5efa\u8a2d
p692
aV\u30ab\u30cd\u30bd\u30a6
p693
aV\u517c\u677e
p694
aV\u30ab\u30cd\u30ab
p695
aV\u517c\u677e\u30a8\u30f3\u30b8\u30cb\u30a2\u30ea\u30f3\u30b0
p696
aV\u30ab\u30cd\u7f8e\u98df\u54c1
p697
aV\u517c\u623f
p698
aV\u30ab\u30cd\u30b3\u7a2e\u82d7
p699
aV\u517c\u677e\u30a8\u30ec\u30af\u30c8\u30ed\u30cb\u30af\u30b9
p700
aV\u30ab\u30ce\u30fc\u30af\u30b9
p701
aV\u6b4c\u821e\u4f0e\u5ea7
p702
aV\u9d28\u5ddd\u30b0\u30e9\u30f3\u30c9\u30db\u30c6\u30eb
p703
aV\u30ab\u30e4\u30c3\u30af
p704
aV\u30ab\u30cd\u30df\u30c4
p705
aV\u4e80\u7530\u88fd\u83d3
p706
aV\u30e4\u30de\u30ce\u30db\u30fc\u30eb\u30c7\u30a3\u30f3\u30b0\u30b9
p707
aV\u30ab\u30e1\u30a4
p708
aV\u4e0a\u7d44
p709
aV\u30ab\u30d7\u30b3\u30f3
p710
aV\u30ab\u30d6\u30c9\u30c3\u30c8\u30b3\u30e0\u8a3c\u5238
p711
aV\u30d7\u30ed\u30b9\u30da\u30af\u30c8
p712
aV\u30ab\u30eb\u30bd\u30cb\u30c3\u30af\u30ab\u30f3\u30bb\u30a4
p713
aV\u30ab\u30e4\u30d0\u5de5\u696d
p714
aV\u30ab\u30eb\u30e9
p715
aV\u5ddd\u91d1\u30db\u30fc\u30eb\u30c7\u30a3\u30f3\u30b0\u30b9
p716
aV\u30ab\u30eb\u30d3\u30fc
p717
aV\u6cb3\u5408\u697d\u5668\u88fd\u4f5c\u6240
p718
aV\u30ab\u30eb\u30ca\u30d0\u30a4\u30aa\u30b5\u30a4\u30a8\u30f3\u30b9
p719
aV\u5ddd\u4e0a\u5857\u6599
p720
aV\u5ddd\u53e3\u5316\u5b66\u5de5\u696d
p721
aV\u30ab\u30ef\u30b5\u30ad
p722
aV\u304b\u308f\u3067\u3093
p723
aV\u5ddd\u5d0e\u8fd1\u6d77\u6c7d\u8239
p724
aV\u5ddd\u5d0e\u91cd\u5de5\u696d
p725
aV\u5ddd\u5d0e\u8a2d\u5099\u5de5\u696d
p726
aV\u5ddd\u5d0e\u6c7d\u8239
p727
aV\u5ddd\u5d0e\u5730\u8cea
p728
aV\u5ddd\u5cb8\u5de5\u696d
p729
aV\u5ddd\u5d0e\u5316\u6210\u5de5\u696d
p730
aV\uff2a\uff26\uff25\u30b7\u30b9\u30c6\u30e0\u30ba
p731
aV\u30ab\u30ef\u30cb\u30b7\u30db\u30fc\u30eb\u30c7\u30a3\u30f3\u30b0\u30b9
p732
aV\u5171\u540c\u7d19\u8ca9\u30db\u30fc\u30eb\u30c7\u30a3\u30f3\u30b0\u30b9
p733
aV\u30ab\u30ef\u30c1\u85ac\u54c1
p734
aV\u30ab\u30ef\u30bf
p735
aV\u5ddd\u91cd\u51b7\u71b1\u5de5\u696d
p736
aV\u5ddd\u6f84\u5316\u5b66\u5de5\u696d
p737
aV\uff2a\uff26\uff25\u30b3\u30f3\u30c6\u30a4\u30ca\u30fc
p738
aV\u30b8\u30a7\u30b3\u30b9
p739
aV\u5ddd\u7530\u30c6\u30af\u30ce\u30ed\u30b8\u30fc\u30ba
p740
aV\u30ab\u30ef\u30bb\u30b3\u30f3\u30d4\u30e5\u30fc\u30bf\u30b5\u30d7\u30e9\u30a4
p741
aV\u5ddd\u8fba
p742
aV\u5ddd\u672c\u7523\u696d
p743
aV\u30ab\u30f3\u30c0\u30db\u30fc\u30eb\u30c7\u30a3\u30f3\u30b0\u30b9
p744
aV\u95a2\u897f\u30da\u30a4\u30f3\u30c8
p745
aV\u5ddd\u897f\u5009\u5eab
p746
aV\u95a2\u897f\u30b9\u30fc\u30d1\u30fc\u30de\u30fc\u30b1\u30c3\u30c8
p747
aV\u95a2\u897f\u96fb\u529b
p748
aV\u30ab\u30f3\u30bb\u30ad
p749
aV\u74b0\u5883\u7ba1\u7406\u30bb\u30f3\u30bf\u30fc
p750
aV\u95a2\u897f\u30a2\u30fc\u30d0\u30f3\u9280\u884c
p751
aV\u30ac\u30fc\u30e9
p752
aV\u30ac\u30a4\u30a2\u30c3\u30af\u30b9
p753
aV\u7b51\u6ce2\u9280\u884c
p754
aV\u95a2\u6771\u96fb\u5316\u5de5\u696d
p755
aV\u95a2\u9580\u6d77
p756
aV\u30e6\u30cb\u30de\u30c3\u30c8\u305d\u3088\u98a8
p757
aV\u304b\u3093\u306a\u3093\u4e38
p758
aV\u30a6\u30a3\u30b6\u30b9
p759
aV\u95a2\u96fb\u5de5
p760
aV\u30ab\u30f3\u30ed
p761
aV\u795e\u7530\u901a\u4fe1\u6a5f
p762
aV\u30ad\u30fc\u30a6\u30a7\u30a2\u30bd\u30ea\u30e5\u30fc\u30b7\u30e7\u30f3\u30ba
p763
aV\u30ad\u30fc\u30a8\u30f3\u30b9
p764
aV\u5b66\u7814\u30db\u30fc\u30eb\u30c7\u30a3\u30f3\u30b0\u30b9
p765
aV\u5b66\u60c5
p766
aV\u30ad\u30af\u30ab\u30ef\u30a8\u30f3\u30bf\u30fc\u30d7\u30e9\u30a4\u30ba
p767
aV\u83ca\u6c34\u5316\u5b66\u5de5\u696d
p768
aV\u30ac\u30ea\u30d0\u30fc\u30a4\u30f3\u30bf\u30fc\u30ca\u30b7\u30e7\u30ca\u30eb
p769
aV\u5143\u65e6\u30d3\u30e5\u30fc\u30c6\u30a3\u5de5\u696d
p770
aV\u5b66\u7a76\u793e
p771
aV\u30ac\u30f3\u30db\u30fc\u30fb\u30aa\u30f3\u30e9\u30a4\u30f3\u30fb\u30a8\u30f3\u30bf\u30fc\u30c6\u30a4\u30e1\u30f3\u30c8
p772
aV\u30ad\u30fc\u30b3\u30fc\u30d2\u30fc
p773
aV\u30af\u30ec\u30a2\u30db\u30fc\u30eb\u30c7\u30a3\u30f3\u30b0\u30b9
p774
aV\uff2b\uff45\uff45\uff30\uff45\uff52\u6280\u7814
p775
aV\u83ca\u6c34\u96fb\u5b50\u5de5\u696d
p776
aV\u83ca\u6c60\u88fd\u4f5c\u6240
p777
aV\u30b8\u30fc\u30c6\u30af\u30c8
p778
aV\u5317\u5ddd\u9244\u5de5\u6240
p779
aV\u5317\u5f18\u96fb\u793e
p780
aV\u6728\u66fd\u8def
p781
aV\u5317\u5ddd\u5de5\u696d
p782
aV\u5317\u6ca2\u7523\u696d
p783
aV\u5317\u5ddd\u7cbe\u6a5f
p784
aV\u5317\u6075
p785
aV\u5317\u65e5\u672c\u7d21\u7e3e
p786
aV\u5317\u91ce\u5efa\u8a2d
p787
aV\u5317\u306e\u9054\u4eba\u30b3\u30fc\u30dd\u30ec\u30fc\u30b7\u30e7\u30f3
p788
aV\u30ad\u30c3\u30b3\u30fc\u30de\u30f3
p789
aV\u30ad\u30c3\u30bb\u30a4\u85ac\u54c1\u5de5\u696d
p790
aV\u30ad\u30bf\u30e0\u30e9
p791
aV\u304d\u3061\u308a
p792
aV\u9b3c\u6012\u5ddd\u30b4\u30e0\u5de5\u696d
p793
aV\u30ad\u30c8\u30fc
p794
aV\u30ad\u30c3\u30c4
p795
aV\u6728\u5fb3\u795e\u7ce7
p796
aV\u30ad\u30bf\u30c3\u30af
p797
aV\u5317\u65e5\u672c\u9280\u884c
p798
aV\u30ad\u30e0\u30e9\u30e6\u30cb\u30c6\u30a3\u30fc
p799
aV\u304d\u3082\u3068
p800
aV\u30ad\u30e3\u30ea\u30a2\u30d0\u30f3\u30af
p801
aV\u30ad\u30e3\u30ea\u30a2\u30ea\u30f3\u30af
p802
aV\u30ad\u30e4\u30ce\u30f3
p803
aV\u30ad\u30e4\u30ce\u30f3\u96fb\u5b50
p804
aV\u30ad\u30e3\u30f3\u30c9\u30a5
p805
aV\u30ad\u30e3\u30f3\u30d0\u30b9
p806
aV\u30ad\u30e0\u30e9\u30bf\u30f3
p807
aV\u6728\u6751\u5316\u5de5\u6a5f
p808
aV\u30ad\u30e0\u30e9
p809
aV\u30ad\u30e4\u30ce\u30f3\u30de\u30fc\u30b1\u30c6\u30a3\u30f3\u30b0\u30b8\u30e3\u30d1\u30f3
p810
aV\u30ad\u30e3\u30ea\u30a2\u30c7\u30b6\u30a4\u30f3\u30bb\u30f3\u30bf\u30fc
p811
aV\u30ad\u30e6\u30fc\u30d4\u30fc
p812
aV\u30ad\u30e5\u30fc\u30d6\u30b7\u30b9\u30c6\u30e0
p813
aV\u4e5d\u5dde\u30ea\u30fc\u30b9\u30b5\u30fc\u30d3\u30b9
p814
aV\u4e5d\u96fb\u5de5
p815
aV\u5354\u6804\u7523\u696d
p816
aV\u5171\u82f1\u88fd\u92fc
p817
aV\u5171\u6804\u30bf\u30f3\u30ab\u30fc
p818
aV\u7d00\u967d\u9280\u884c
p819
aV\u30ad\u30e7\u30fc\u30ea\u30f3\u88fd\u85ac\u30db\u30fc\u30eb\u30c7\u30a3\u30f3\u30b0\u30b9
p820
aV\u4eac\u6975\u904b\u8f38\u5546\u4e8b
p821
aV\u30ad\u30e6\u30fc\u30bd\u30fc\u6d41\u901a\u30b7\u30b9\u30c6\u30e0
p822
aV\u30a4\u30aa\u30f3\u4e5d\u5dde
p823
aV\u4e5d\u5dde\u96fb\u529b
p824
aV\u4eac\u9032
p825
aV\u5171\u6210\u30ec\u30f3\u30c6\u30e0
p826
aV\u4eac\u90fd\u304d\u3082\u306e\u53cb\u7985
p827
aV\u4eac\u90fd\u6a5f\u68b0\u5de5\u5177
p828
aV\u4eac\u4e09\u88fd\u4f5c\u6240
p829
aV\u4eac\u5199
p830
aV\u30ad\u30e7\u30a6\u30c7\u30f3
p831
aV\u8fd1\u9244\u767e\u8ca8\u5e97
p832
aV\u4eac\u30bb\u30e9
p833
aV\u4eac\u90fd\u9280\u884c
p834
aV\u5171\u7acb\u5370\u5237
p835
aV\u5354\u7acb\u30a8\u30a2\u30c6\u30c3\u30af
p836
aV\u5354\u7acb\u60c5\u5831\u901a\u4fe1
p837
aV\u5354\u7acb\u96fb\u6a5f
p838
aV\u5171\u7acb\u30e1\u30f3\u30c6\u30ca\u30f3\u30b9
p839
aV\u30e1\u30c7\u30a3\u30a2\u30b9\u30db\u30fc\u30eb\u30c7\u30a3\u30f3\u30b0\u30b9
p840
aV\uff2b\uff39\uff23\uff2f\uff2d\u30db\u30fc\u30eb\u30c7\u30a3\u30f3\u30b0\u30b9
p841
aV\u5354\u548c\u65e5\u6210
p842
aV\u5171\u540c\u5370\u5237
p843
aV\u5171\u540c\u30d4\u30fc\u30a2\u30fc\u30eb
p844
aV\u5354\u548c\u30a8\u30af\u30b7\u30aa
p845
aV\u4eac\u90fd\u30db\u30c6\u30eb
p846
aV\u30ad\u30ea\u30f3\u30db\u30fc\u30eb\u30c7\u30a3\u30f3\u30b0\u30b9
p847
aV\u304d\u3093\u3048\u3044
p848
aV\u5354\u548c\u30b3\u30f3\u30b5\u30eb\u30bf\u30f3\u30c4
p849
aV\u5171\u548c\u96fb\u696d
p850
aV\u6975\u6771\u8a3c\u5238
p851
aV\u6975\u6771\u8cbf\u6613
p852
aV\u6975\u6d0b
p853
aV\u30ad\u30ea\u30f3\u5802\u30db\u30fc\u30eb\u30c7\u30a3\u30f3\u30b0\u30b9
p854
aV\u5171\u548c\u5de5\u696d\u6240
p855
aV\u5354\u548c\u767a\u9175\u30ad\u30ea\u30f3
p856
aV\u6975\u6771\u958b\u767a\u5de5\u696d
p857
aV\u304d\u3087\u304f\u3068\u3046
p858
aV\u5171\u548c\u30ec\u30b6\u30fc
p859
aV\u6280\u7814\u8208\u696d
p860
aV\u6280\u7814\u88fd\u4f5c\u6240
p861
aV\u304d\u3093\u3067\u3093
p862
aV\u30ae\u30ac\u30d7\u30e9\u30a4\u30ba
p863
aV\u8fd1\u9244\u30b0\u30eb\u30fc\u30d7\u30db\u30fc\u30eb\u30c7\u30a3\u30f3\u30b0\u30b9
p864
aV\u30ad\u30f3\u30b0
p865
aV\u65e5\u672c\u30a2\u30a4\u30fb\u30a8\u30b9\u30fb\u30b1\u30a4
p866
aV\u30ad\u30f3\u30b0\u30b8\u30e0
p867
aV\u8fd1\u9244\u30a8\u30af\u30b9\u30d7\u30ec\u30b9
p868
aV\u8fd1\u757f\u8eca\u8f1b
p869
aV\u9280\u5ea7\u5c71\u5f62\u5c4b
p870
aV\uff2b\uff2e\uff34\uff0d\uff23\uff34\u30db\u30fc\u30eb\u30c7\u30a3\u30f3\u30b0\u30b9
p871
aV\u30ae\u30e3\u30d0\u30f3
p872
aV\u30af\u30aa\u30fc\u30eb
p873
aV\u30af\u30c3\u30af\u30d1\u30c3\u30c9
p874
aV\u30af\u30a4\u30c3\u30af
p875
aV\u7a7a\u6e2f\u65bd\u8a2d
p876
aV\u30af\u30cb\u30df\u30cd\u5de5\u696d
p877
aV\u30af\u30b9\u30ea\u306e\u30a2\u30aa\u30ad
p878
aV\u4e45\u4e16
p879
aV\u30af\u30a8\u30b9\u30c8
p880
aV\u5de5\u85e4\u5efa\u8a2d
p881
aV\u9280\u5ea7\u30eb\u30ce\u30a2\u30fc\u30eb
p882
aV\u30af\u30dc\u30bf
p883
aV\u718a\u8c37\u7d44
p884
aV\u30af\u30df\u30a2\u30a4\u5316\u5b66\u5de5\u696d
p885
aV\u5009\u6577\u7d21\u7e3e
p886
aV\u30af\u30e9\u30b9\u30bf\u30fc\u30c6\u30af\u30ce\u30ed\u30b8\u30fc
p887
aV\u30af\u30e9\u30a6\u30c9\u30ef\u30fc\u30af\u30b9
p888
aV\u304f\u3089\u30b3\u30fc\u30dd\u30ec\u30fc\u30b7\u30e7\u30f3
p889
aV\u30d6\u30ed\u30fc\u30c9\u30e1\u30c7\u30a3\u30a2
p890
aV\uff2b\uff2c\uff41\uff42
p891
aV\u30e1\u30c7\u30a3\u30d1\u30eb\u30db\u30fc\u30eb\u30c7\u30a3\u30f3\u30b0\u30b9
p892
aV\u30af\u30e9\u30ea\u30aa\u30f3
p893
aV\u30af\u30e9\u30a6\u30c7\u30a3\u30a2
p894
aV\u30af\u30dc\u30c6\u30c3\u30af
p895
aV\u5009\u5143\u88fd\u4f5c\u6240
p896
aV\u30af\u30ea\u30c3\u30d7\u30b3\u30fc\u30dd\u30ec\u30fc\u30b7\u30e7\u30f3
p897
aV\u30af\u30ea\u30ca\u30c3\u30d7
p898
aV\u6817\u7530\u5de5\u696d
p899
aV\u30af\u30ea\u30a8\u30a4\u30c8
p900
aV\u30af\u30ea\u30a8\u30a4\u30c8\uff33\uff24\u30db\u30fc\u30eb\u30c7\u30a3\u30f3\u30b0\u30b9
p901
aV\u30af\u30ea\u30a8\u30a2\u30ca\u30d6\u30ad
p902
aV\u30af\u30ea\u30a8\u30a4\u30c8\u30fb\u30ec\u30b9\u30c8\u30e9\u30f3\u30c4\u30fb\u30db\u30fc\u30eb\u30c7\u30a3\u30f3\u30b0\u30b9
p903
aV\u30af\u30ea\u30a8\u30fc\u30c8\u30e1\u30c7\u30a3\u30c3\u30af
p904
aV\u30af\u30ea\u30fc\u30af\u30fb\u30a2\u30f3\u30c9\u30fb\u30ea\u30d0\u30fc\u793e
p905
aV\u30af\u30e9\u30ec
p906
aV\u30af\u30ec\u30c7\u30a3\u30bb\u30be\u30f3
p907
aV\u30af\u30ec\u30cf
p908
aV\u6817\u672c\u9435\u5de5\u6240
p909
aV\u30af\u30ea\u30e4\u30de\u30db\u30fc\u30eb\u30c7\u30a3\u30f3\u30b0\u30b9
p910
aV\u9ed2\u5d0e\u64ad\u78e8
p911
aV\u30af\u30ed\u30b9\u30ad\u30e3\u30c3\u30c8
p912
aV\u30af\u30ec\u30aa
p913
aV\u304f\u308d\u304c\u306d\u3084
p914
aV\u304f\u308d\u304c\u306d\u5de5\u4f5c\u6240
p915
aV\u30af\u30ec\u30b9\u30b3
p916
aV\u6817\u6797\u5546\u8239
p917
aV\u30af\u30ea\u30e0\u30be\u30f3
p918
aV\u30af\u30ed\u30c3\u30d7\u30b9
p919
aV\u30af\u30ef\u30b6\u30ef
p920
aV\u30af\u30ed\u30b9\u30d7\u30e9\u30b9
p921
aV\u30af\u30ed\u30b9\u30fb\u30de\u30fc\u30b1\u30c6\u30a3\u30f3\u30b0\u30b0\u30eb\u30fc\u30d7
p922
aV\u6851\u5c71
p923
aV\uff47\uff55\uff4d\uff49
p924
aV\uff27\uff55\uff4e\uff4f\uff53\uff59
p925
aV\u30b0\u30e9\u30f3\u30c7\u30a3\u30cf\u30a6\u30b9
p926
aV\u9ed2\u7530\u96fb\u6c17
p927
aV\u30b0\u30e9\u30d5\u30a1\u30a4\u30c8\u30c7\u30b6\u30a4\u30f3
p928
aV\u9ed2\u7530\u7cbe\u5de5
p929
aV\u9ed2\u8c37
p930
aV\uff27\uff26\uff21
p931
aV\u30b7\u30c3\u30d7\u30d8\u30eb\u30b9\u30b1\u30a2\u30db\u30fc\u30eb\u30c7\u30a3\u30f3\u30b0\u30b9
p932
aV\u3050\u308b\u306a\u3073
p933
aV\u30b0\u30e9\u30f3\u30c7\u30a3\u30fc\u30ba
p934
aV\u30b0\u30ea\u30fc\u30f3\u30af\u30ed\u30b9
p935
aV\u30a6\u30a8\u30eb\u30b7\u30a2\u30db\u30fc\u30eb\u30c7\u30a3\u30f3\u30b0\u30b9
p936
aV\u30b0\u30ed\u30fc\u30d0\u30eb\u30c0\u30a4\u30cb\u30f3\u30b0
p937
aV\uff27\uff33\uff29\u30af\u30ec\u30aa\u30b9
p938
aV\u30b0\u30f3\u30bc
p939
aV\u30b0\u30ea\u30fc
p940
aV\u7fa4\u6804\u5316\u5b66\u5de5\u696d
p941
aV\u30b0\u30ed\u30fc\u30ea\u30fc
p942
aV\u30b0\u30eb\u30e1\u6775\u5c4b
p943
aV\uff2b\uff36\uff2b
p944
aV\u30b1\u30fc\u30e6\u30fc\u30db\u30fc\u30eb\u30c7\u30a3\u30f3\u30b0\u30b9
p945
aV\u30b1\u30a2\uff12\uff11
p946
aV\u30b1\u30a2\u30cd\u30c3\u30c8
p947
aV\u7fa4\u99ac\u9280\u884c
p948
aV\uff2b\uff06\uff2f\u30a8\u30ca\u30b8\u30fc\u30b0\u30eb\u30fc\u30d7
p949
aV\u30b1\u30fc\u30ba\u30db\u30fc\u30eb\u30c7\u30a3\u30f3\u30b0\u30b9
p950
aV\u30b1\u30a2\u30b5\u30fc\u30d3\u30b9
p951
aV\u30b1\u30fc\u30fb\u30a8\u30d5\u30fb\u30b7\u30fc
p952
aV\uff2b\uff27\u60c5\u5831
p953
aV\u30b1\u30fc\u30d2\u30f3
p954
aV\u30b1\u30fc\u30e8\u30fc
p955
aV\u4eac\u798f\u96fb\u6c17\u9244\u9053
p956
aV\u30b1\u30a4\u30d6
p957
aV\u4eac\u962a\u795e\u30d3\u30eb\u30c7\u30a3\u30f3\u30b0
p958
aV\u30b1\u30a4\u30c6\u30a3\u30b1\u30a4
p959
aV\u4eac\u8449\u74e6\u65af
p960
aV\u4eac\u6210\u96fb\u9244
p961
aV\u4eac\u6d5c\u6025\u884c\u96fb\u9244
p962
aV\u30b1\u30a4\u30d2\u30f3
p963
aV\u4eac\u738b\u96fb\u9244
p964
aV\u4eac\u962a\u96fb\u6c17\u9244\u9053
p965
aV\u30b1\u30df\u30d7\u30ed\u5316\u6210
p966
aV\u30b1\u30eb
p967
aV\u30b1\u30f3\u30b3\u30fc\u30b3\u30e0
p968
aV\u30a8\u30b9\u30dd\u30a2
p969
aV\u30b2\u30f3\u30ad\u30fc
p970
aV\u7814\u5275
p971
aV\u30b2\u30fc\u30e0\u30ab\u30fc\u30c9\u30fb\u30b8\u30e7\u30a4\u30b3\u30db\u30fc\u30eb\u30c7\u30a3\u30f3\u30b0\u30b9
p972
aV\u30b2\u30aa\u30db\u30fc\u30eb\u30c7\u30a3\u30f3\u30b0\u30b9
p973
aV\u5efa\u8a2d\u6280\u8853\u7814\u7a76\u6240
p974
aV\u5065\u5eb7\u30b3\u30fc\u30dd\u30ec\u30fc\u30b7\u30e7\u30f3
p975
aV\u30b1\u30cd\u30c7\u30a3\u30af\u30b9
p976
aV\u30b1\u30f3\u30b3\u30fc\u30de\u30e8\u30cd\u30fc\u30ba
p977
aV\u4eac\u8449\u9280\u884c
p978
aV\u30b3\u30a2
p979
aV\u5c0f\u6c60\u9178\u7d20\u5de5\u696d
p980
aV\u30b3\u30fc\u30bb\u30eb
p981
aV\u30b3\u30fc\u30ca\u30f3\u5546\u4e8b
p982
aV\u30b3\u30fc\u30a2\u30c4\u5de5\u696d
p983
aV\u30b3\u30fc\u30a8\u30fc\u30c6\u30af\u30e2\u30db\u30fc\u30eb\u30c7\u30a3\u30f3\u30b0\u30b9
p984
aV\uff2b\uff2f\uff21
p985
aV\u30b3\u30fc\u30d7\u30b1\u30df\u30ab\u30eb
p986
aV\u5143\u6c17\u5bff\u53f8
p987
aV\u30b2\u30f3\u30c0\u30a4\u30a8\u30fc\u30b8\u30a7\u30f3\u30b7\u30fc
p988
aV\u30b3\u30fc\u30bb\u30fc\u30a2\u30fc\u30eb\u30a4\u30fc
p989
aV\u30b3\u30fc\u30bb\u30fc
p990
aV\u5c0f\u7cf8\u88fd\u4f5c\u6240
p991
aV\u9ad8\u5727\u30ac\u30b9\u5de5\u696d
p992
aV\u8208\u9280\u30ea\u30fc\u30b9
p993
aV\u71e6\u30db\u30fc\u30eb\u30c7\u30a3\u30f3\u30b0\u30b9
p994
aV\uff2b\uff29\u30db\u30fc\u30eb\u30c7\u30a3\u30f3\u30b0\u30b9
p995
aV\u8679\u6280
p996
aV\u5e83\u6804\u5316\u5b66\u5de5\u696d
p997
aV\u9271\u7814\u5de5\u696d
p998
aV\u8208\u7814
p999
aV\u5149\u5f69\u5de5\u82b8
p1000
aV\u795e\u5cf6\u5316\u5b66\u5de5\u696d
p1001
aV\u30a4\u30f3\u30f4\u30a1\u30b9\u30c8\u8a3c\u5238
p1002
aV\u9ad8\u5468\u6ce2\u71b1\u932c
p1003
aV\u9d3b\u6c60\u904b\u8f38
p1004
aV\u5ee3\u6e08\u5802
p1005
aV\u69cb\u9020\u8a08\u753b\u7814\u7a76\u6240
p1006
aV\u5f18\u96fb\u793e
p1007
aV\u9ad8\u901f
p1008
aV\u5149\u4e16\u8a3c\u5238
p1009
aV\u9ad8\u77e5\u9280\u884c
p1010
aV\u30b3\u30ab\u30fb\u30b3\u30fc\u30e9\u30a6\u30a8\u30b9\u30c8
p1011
aV\u30b3\u30ab\u30fb\u30b3\u30fc\u30e9\u30a4\u30fc\u30b9\u30c8\u30b8\u30e3\u30d1\u30f3
p1012
aV\u795e\u6238\u96fb\u9244
p1013
aV\u795e\u6238\u767a\u52d5\u6a5f
p1014
aV\u5e78\u697d\u82d1
p1015
aV\u5149\u967d\u793e
p1016
aV\u795e\u6238\u7269\u7523
p1017
aV\u795e\u6238\u88fd\u92fc\u6240
p1018
aV\u56fd\u969b\u8a08\u6e2c\u5668
p1019
aV\u30b8\u30a7\u30a4\u30c6\u30af\u30c8
p1020
aV\u3042\u304b\u3064\u304d\u30d5\u30a3\u30ca\u30f3\u30b7\u30e3\u30eb\u30b0\u30eb\u30fc\u30d7
p1021
aV\u30b3\u30af\u30e8
p1022
aV\u30a8\u30e0\u30c6\u30a3\u30b8\u30a7\u30cd\u30c3\u30af\u30b9
p1023
aV\u30b3\u30b3\u30b9\u30b8\u30e3\u30d1\u30f3
p1024
aV\u30b3\u30b7\u30c0\u30ab\u30db\u30fc\u30eb\u30c7\u30a3\u30f3\u30b0\u30b9
p1025
aV\u65e5\u7acb\u56fd\u969b\u96fb\u6c17
p1026
aV\u56fd\u7523\u96fb\u6a5f
p1027
aV\u56fd\u969b\u77f3\u6cb9\u958b\u767a\u5e1d\u77f3
p1028
aV\u56fd\u969b\u30c1\u30e3\u30fc\u30c8
p1029
aV\u30b3\u30b3\u30ab\u30e9\u30d5\u30a1\u30a4\u30f3
p1030
aV\u30b3\u30b8\u30de
p1031
aV\uff2b\uff33\uff2b
p1032
aV\u3053\u3053\u308d\u30cd\u30c3\u30c8
p1033
aV\u5c0f\u5cf6\u9244\u5de5\u6240
p1034
aV\u30b3\u30b9\u30e2\u30b9\u85ac\u54c1
p1035
aV\u5150\u7389\u5316\u5b66\u5de5\u696d
p1036
aV\u30b3\u30c3\u30af\u30b9
p1037
aV\u30b3\u30bf
p1038
aV\u5bff\u30b9\u30d4\u30ea\u30c3\u30c4
p1039
aV\u30b3\u30b9\u30e2\u30fb\u30d0\u30a4\u30aa
p1040
aV\u30b3\u30b9\u30e2\u77f3\u6cb9
p1041
aV\u30b3\u30ca\u30ab
p1042
aV\u30b3\u30ca\u30df
p1043
aV\u5c0f\u50e7\u5bff\u3057
p1044
aV\u30b3\u30cb\u30ab\u30df\u30ce\u30eb\u30bf
p1045
aV\u30b3\u30cb\u30b7
p1046
aV\u5c0f\u677e\u88fd\u4f5c\u6240
p1047
aV\u5c0f\u677e\u7cbe\u7df4
p1048
aV\u5c0f\u6797\u88fd\u85ac
p1049
aV\u30bd\u30ec\u30ad\u30a2
p1050
aV\u5c0f\u6797\u7523\u696d
p1051
aV\u5c0f\u6797\u6d0b\u884c
p1052
aV\u9752\u6728\u3042\u3059\u306a\u308d\u5efa\u8a2d
p1053
aV\u99d2\u4e95\u30cf\u30eb\u30c6\u30c3\u30af
p1054
aV\u5c0f\u677e\u30a6\u30aa\u30fc\u30eb\u5de5\u696d
p1055
aV\u30b3\u30cd\u30af\u30c8\u30db\u30fc\u30eb\u30c7\u30a3\u30f3\u30b0\u30b9
p1056
aV\u30b3\u30e0\u30b7\u30b9\u30db\u30fc\u30eb\u30c7\u30a3\u30f3\u30b0\u30b9
p1057
aV\u30b3\u30e0\u30c1\u30e5\u30a2
p1058
aV\u30b3\u30e1\u30ea
p1059
aV\u30b3\u30e2
p1060
aV\u30b3\u30ed\u30ca
p1061
aV\u30b3\u30ed\u30d7\u30e9
p1062
aV\u5c0f\u68ee\u30b3\u30fc\u30dd\u30ec\u30fc\u30b7\u30e7\u30f3
p1063
aV\u30b3\u30e9\u30dc\u30b9
p1064
aV\u30b3\u30e1\u5175
p1065
aV\u30b3\u30ed\u30ef\u30a4\u30c9
p1066
aV\u30b3\u30de\u30cb\u30fc
p1067
aV\u30b3\u30e0\u30b7\u30fc\u30c9
p1068
aV\u30b3\u30f3\u30bb\u30c3\u30af
p1069
aV\u30b3\u30f3\u30c6\u30c3\u30af
p1070
aV\u30b3\u30f3\u30c9\u30fc\u30c6\u30c3\u30af
p1071
aV\u30b4\u30eb\u30d5\u30c0\u30a4\u30b8\u30a7\u30b9\u30c8\u30fb\u30aa\u30f3\u30e9\u30a4\u30f3
p1072
aV\u30b4\u30eb\u30d5\u30fb\u30c9\u30a5
p1073
aV\u5408\u540c\u88fd\u9435
p1074
aV\u4e92\u5fdc\u5316\u5b66\u5de5\u696d
p1075
aV\u4e94\u6d0b\u30a4\u30f3\u30c6\u30c3\u30af\u30b9
p1076
aV\u4e94\u6d0b\u5efa\u8a2d
p1077
aV\u30b4\u30fc\u30eb\u30c9\u30a6\u30a4\u30f3
p1078
aV\u30b4\u30fc\u30eb\u30c9\u30af\u30ec\u30b9\u30c8
p1079
aV\u90f7\u9244\u5de5\u6240
p1080
aV\u30aa\u30a8\u30ce\u30f3\u30db\u30fc\u30eb\u30c7\u30a3\u30f3\u30b0\u30b9
p1081
aV\u4e94\u6d0b\u98df\u54c1\u7523\u696d
p1082
aV\u3055\u3044\u304b\u5c4b
p1083
aV\u30b5\u30a4\u30b8\u30cb\u30a2
p1084
aV\u30b5\u30a4\u30bc\u30ea\u30e4
p1085
aV\u30b5\u30a4\u30bf\u30db\u30fc\u30eb\u30c7\u30a3\u30f3\u30b0\u30b9
p1086
aV\u897f\u90e8\u74e6\u65af
p1087
aV\u30b5\u30a4\u30dc\u30fc
p1088
aV\u30b5\u30a4\u30cd\u30c3\u30af\u30b9
p1089
aV\u30b5\u30a4\u30d0\u30fc\u30a8\u30fc\u30b8\u30a7\u30f3\u30c8
p1090
aV\u30b5\u30a4\u30d0\u30fc\u30b9\u30c6\u30c3\u30d7
p1091
aV\uff23\uff39\uff22\uff25\uff32\uff24\uff39\uff2e\uff25
p1092
aV\u30b5\u30a4\u30d0\u30fc\u30ea\u30f3\u30af\u30b9
p1093
aV\u30b5\u30a4\u30d0\u30cd\u30c3\u30c8\u30b7\u30b9\u30c6\u30e0
p1094
aV\u30b5\u30a4\u30d0\u30fc\u30b3\u30e0
p1095
aV\u30b5\u30fc\u30e9\u4f4f\u5b85
p1096
aV\u30b5\u30a4\u30dc\u30a6\u30ba
p1097
aV\u30b5\u30fc\u30e9\u30b3\u30fc\u30dd\u30ec\u30fc\u30b7\u30e7\u30f3
p1098
aV\u9152\u4e95\u91cd\u5de5\u696d
p1099
aV\u30b5\u30ab\u30a4\u5f15\u8d8a\u30bb\u30f3\u30bf\u30fc
p1100
aV\u583a\u5316\u5b66\u5de5\u696d
p1101
aV\u583a\u5546\u4e8b
p1102
aV\u6804\u96fb\u5b50
p1103
aV\u30b5\u30ab\u30bf\u30a4\u30f3\u30af\u30b9
p1104
aV\u4f50\u8cc0\u9280\u884c
p1105
aV\u3055\u304c\u7f8e
p1106
aV\u30b5\u30ab\u30a4\u30aa\u30fc\u30d9\u30c3\u30af\u30b9
p1107
aV\u76f8\u6a21\u30b4\u30e0\u5de5\u696d
p1108
aV\u76f8\u9244\u30db\u30fc\u30eb\u30c7\u30a3\u30f3\u30b0\u30b9
p1109
aV\u30b5\u30ac\u30df\u30c1\u30a7\u30fc\u30f3
p1110
aV\u30b5\u30ab\u30bf\u306e\u30bf\u30cd
p1111
aV\u6afb\u5cf6\u57e0\u982d
p1112
aV\u30b5\u30b3\u30b9
p1113
aV\u30b5\u30af\u30bb\u30b9\u30db\u30fc\u30eb\u30c7\u30a3\u30f3\u30b0\u30b9
p1114
aV\u685c\u4e95\u88fd\u4f5c\u6240
p1115
aV\u4f50\u7530\u5efa\u8a2d
p1116
aV\u30b5\u30c0\u30de\u30c4
p1117
aV\u30b5\u30c3\u30dd\u30ed\u30c9\u30e9\u30c3\u30b0\u30b9\u30c8\u30a2\u30fc
p1118
aV\u3055\u304f\u3089\u30a4\u30f3\u30bf\u30fc\u30cd\u30c3\u30c8
p1119
aV\u3055\u304f\u3089\u30b1\u30fc\u30b7\u30fc\u30a8\u30b9
p1120
aV\u30b5\u30b5\u30af\u30e9
p1121
aV\u6afb\u8b77\u8b28
p1122
aV\u30b5\u30c3\u30dd\u30ed\u30db\u30fc\u30eb\u30c7\u30a3\u30f3\u30b0\u30b9
p1123
aV\u30de\u30c3\u30af\u30b9\u30d0\u30ea\u30e5\u5317\u6d77\u9053
p1124
aV\u672d\u5e4c\u81e8\u5e8a\u691c\u67fb\u30bb\u30f3\u30bf\u30fc
p1125
aV\u4f50\u85e4\u5546\u4e8b
p1126
aV\u4f50\u85e4\u98df\u54c1\u5de5\u696d
p1127
aV\u30b5\u30c8\u30fc\u30db\u30fc\u30eb\u30c7\u30a3\u30f3\u30b0\u30b9
p1128
aV\u30b5\u30c8\u30fc\u5546\u4f1a
p1129
aV\u30b5\u30c8\u30ec\u30b9\u30c8\u30e9\u30f3\u30b7\u30b9\u30c6\u30e0\u30ba
p1130
aV\u30b5\u30cb\u30fc\u30b5\u30a4\u30c9\u30a2\u30c3\u30d7
p1131
aV\u30b5\u30c8\u30a6\u98df\u54c1\u5de5\u696d
p1132
aV\u4f50\u9ce5\u96fb\u6a5f
p1133
aV\u4f50\u6e21\u6c7d\u8239
p1134
aV\u30b5\u30e0\u30b7\u30f3\u30b0\u30db\u30fc\u30eb\u30c7\u30a3\u30f3\u30b0\u30b9
p1135
aV\u30b5\u30cb\u30c3\u30af\u30b9
p1136
aV\u6ca2\u4e95\u88fd\u85ac
p1137
aV\u30b5\u30e0\u30c6\u30a3
p1138
aV\u30b5\u30de\u30f3\u30b5\u30bf\u30d0\u30b5\u30b8\u30e3\u30d1\u30f3\u30ea\u30df\u30c6\u30c3\u30c9
p1139
aV\u6fa4\u85e4\u96fb\u6a5f
p1140
aV\u30b5\u30ce\u30e4\u30b9\u30db\u30fc\u30eb\u30c7\u30a3\u30f3\u30b0\u30b9
p1141
aV\u30b5\u30e0\u30b3
p1142
aV\uff33\uff35\uff2d\uff23\uff2f
p1143
aV\u30b5\u30f3\u30a8\u30fc\u5316\u7814
p1144
aV\u4e09\u6804\u5efa\u7bc9\u8a2d\u8a08
p1145
aV\u4e09\u611b\u77f3\u6cb9
p1146
aV\u4e09\u6afb\u5de5\u696d
p1147
aV\uff23\uff2b\u30b5\u30f3\u30a8\u30c4
p1148
aV\u30b5\u30f3\u30a6\u30c3\u30c9
p1149
aV\u30b5\u30f3\u30a8\u30fc
p1150
aV\u30b5\u30f3\u30aa\u30fc\u30bf\u30b9
p1151
aV\u4e09\u6804\u30b3\u30fc\u30dd\u30ec\u30fc\u30b7\u30e7\u30f3
p1152
aV\u5c71\u9670\u5408\u540c\u9280\u884c
p1153
aV\uff33\uff21\uff2e\uff2b\uff39\uff2f
p1154
aV\u4e09\u5354\u7acb\u5c71
p1155
aV\u4e09\u5354\u30d5\u30ed\u30f3\u30c6\u30a2
p1156
aV\u4e09\u6a5f\u5de5\u696d
p1157
aV\u4e09\u6a5f\u30b5\u30fc\u30d3\u30b9
p1158
aV\u4e09\u4eac\u5316\u6210
p1159
aV\u4e09\u5171\u751f\u8208
p1160
aV\u30d1\u30ca\u30bd\u30cb\u30c3\u30af\u3000\u30c7\u30d0\u30a4\u30b9\uff33\uff35\uff2e\uff38
p1161
aV\u5c71\u4e5d
p1162
aV\u71e6\u30ad\u30e3\u30d4\u30bf\u30eb\u30de\u30cd\u30fc\u30b8\u30e1\u30f3\u30c8
p1163
aV\u30b5\u30f3\u30b1\u30a4\u5316\u5b66
p1164
aV\u30b5\u30f3\u30b3\u30fc\u30eb
p1165
aV\u4e09\u6643\u91d1\u5c5e\u5de5\u696d
p1166
aV\u4e09\u91cd\u4ea4\u901a\u30b0\u30eb\u30fc\u30d7\u30db\u30fc\u30eb\u30c7\u30a3\u30f3\u30b0\u30b9
p1167
aV\u4e09\u5149\u30de\u30fc\u30b1\u30c6\u30a3\u30f3\u30b0\u30d5\u30fc\u30ba
p1168
aV\u30b5\u30f3\u30b3\u30fc\u30c6\u30af\u30ce
p1169
aV\u65b0\u8208\u30d7\u30e9\u30f3\u30c6\u30c3\u30af
p1170
aV\u30b5\u30f3\u30b2\u30c4
p1171
aV\u4e09\u5149\u7523\u696d
p1172
aV\u4e09\u5149\u5408\u6210
p1173
aV\u30b5\u30f3\u30b1\u30f3\u96fb\u6c17
p1174
aV\u30b5\u30f3\u30b3\u30fc
p1175
aV\u30b5\u30f3\u30bb\u30a4
p1176
aV\u4e09\u7cbe\u30c6\u30af\u30ce\u30ed\u30b8\u30fc\u30ba
p1177
aV\u4e09\u4fe1\u96fb\u6c17
p1178
aV\u4e09\u793e\u96fb\u6a5f\u88fd\u4f5c\u6240
p1179
aV\uff33\uff2a\uff29
p1180
aV\u30b5\u30f3\u30bb\u30a4\u30e9\u30f3\u30c7\u30a3\u30c3\u30af
p1181
aV\u30b5\u30f3\u30c6\u30c3\u30af
p1182
aV\u4e09\u76f8\u96fb\u6a5f
p1183
aV\u4e09\u4fe1\u5efa\u8a2d\u5de5\u696d
p1184
aV\uff53\uff41\uff4e\uff54\uff45\uff43
p1185
aV\u4e09\u6771\u5de5\u696d\u793e
p1186
aV\u30b5\u30f3\u30c8\u30ea\u30fc\u98df\u54c1\u30a4\u30f3\u30bf\u30fc\u30ca\u30b7\u30e7\u30ca\u30eb
p1187
aV\u5c71\u738b
p1188
aV\u30b5\u30f3\u30d0\u30a4\u30aa
p1189
aV\u30b5\u30f3\u30d5\u30ed\u30f3\u30c6\u30a3\u30a2\u4e0d\u52d5\u7523
p1190
aV\u30b5\u30f3\u96fb\u5b50
p1191
aV\u30b5\u30f3\u30c9\u30e9\u30c3\u30b0
p1192
aV\u53c2\u5929\u88fd\u85ac
p1193
aV\u30b5\u30f3\u30c7\u30fc
p1194
aV\u30b5\u30f3\u30c7\u30f3\u30db\u30fc\u30eb\u30c7\u30a3\u30f3\u30b0\u30b9
p1195
aV\u30b8\u30e7\u30ea\u30fc\u30d1\u30b9\u30bf
p1196
aV\u30b5\u30f3\u30e6\u30fc\u5efa\u8a2d
p1197
aV\u30b5\u30f3\u30e6\u30a6
p1198
aV\u30b5\u30f3\u30e8\u30fc\u30cf\u30a6\u30b8\u30f3\u30b0\u540d\u53e4\u5c4b
p1199
aV\u30b5\u30f3\u30e8\u30fc\u30db\u30fc\u30e0\u30ba
p1200
aV\u30b5\u30f3\u30de\u30eb\u30af\u30db\u30fc\u30eb\u30c7\u30a3\u30f3\u30b0\u30b9
p1201
aV\u5c71\u6d0b\u96fb\u6c17
p1202
aV\u30b5\u30f3\u30e1\u30c3\u30bb
p1203
aV\u4e09\u6d0b\u5316\u6210\u5de5\u696d
p1204
aV\u5c71\u967d\u96fb\u6c17\u9244\u9053
p1205
aV\u4e09\u967d\u5546\u4f1a
p1206
aV\u4e09\u6d0b\u5de5\u696d
p1207
aV\u5c71\u967d\u7279\u6b8a\u88fd\u92fc
p1208
aV\u4e09\u6d0b\u5802\u30db\u30fc\u30eb\u30c7\u30a3\u30f3\u30b0\u30b9
p1209
aV\u5c71\u967d\u767e\u8ca8\u5e97
p1210
aV\u4e09\u548c\u30db\u30fc\u30eb\u30c7\u30a3\u30f3\u30b0\u30b9
p1211
aV\u4e09\u548c\u5009\u5eab
p1212
aV\u30b5\u30f3\u30ea\u30f3
p1213
aV\u30b5\u30f3\u30ef\u30ab\u30f3\u30d1\u30cb\u30fc
p1214
aV\u30b5\u30f3\u30fb\u30e9\u30a4\u30d5
p1215
aV\u30b5\u30f3\u30ea\u30aa
p1216
aV\u30b5\u30f3\u30ef\u30c9\u30fc
p1217
aV\u30b5\u30f3\u30ef\u30c6\u30af\u30ce\u30b9
p1218
aV\u4e09\u6d0b\u8cbf\u6613
p1219
aV\u30b5\u30f3\u30ea\u30c4
p1220
aV\u30b6\u30c3\u30d1\u30e9\u30b9
p1221
aV\u30b6\u30fb\u30d1\u30c3\u30af
p1222
aV\u30b7\u30fc\u30fb\u30f4\u30a4\u30fb\u30a8\u30b9\u30fb\u30d9\u30a4\u30a8\u30ea\u30a2
p1223
aV\uff23\uff21\uff23\u3000\uff28\uff4f\uff4c\uff44\uff49\uff4e\uff47\uff53
p1224
aV\u8535\u738b\u7523\u696d
p1225
aV\uff34\uff28\uff25\u30b0\u30ed\u30fc\u30d0\u30eb\u793e
p1226
aV\u30b6\u30a4\u30f3\u30a8\u30ec\u30af\u30c8\u30ed\u30cb\u30af\u30b9
p1227
aV\uff23\uff32\uff29\u30fb\u30df\u30c9\u30eb\u30a6\u30a7\u30a2
p1228
aV\u30b7\u30fc\u30a2\u30fc\u30eb\u30a4\u30fc
p1229
aV\uff23\uff29\uff2a
p1230
aV\u96d1\u8ca8\u5c4b\u30d6\u30eb\u30c9\u30c3\u30b0
p1231
aV\u30b7\u30fc\u30a4\u30fc\u30b7\u30fc
p1232
aV\u4e38\u5584\uff23\uff28\uff29\u30db\u30fc\u30eb\u30c7\u30a3\u30f3\u30b0\u30b9
p1233
aV\u30d5\u30a1\u30b9\u30c6\u30c3\u30d7\u30b9
p1234
aV\u30b7\u30fc\u30ad\u30e5\u30fc\u30d6
p1235
aV\u30b7\u30fc\u30af\u30b9
p1236
aV\uff23\uff25\u30db\u30fc\u30eb\u30c7\u30a3\u30f3\u30b0\u30b9
p1237
aV\uff2d\uff21\uff27\u306d\u3063\u3068\u30db\u30fc\u30eb\u30c7\u30a3\u30f3\u30b0\u30b9
p1238
aV\u30b7\u30fc\u30c9\u5e73\u548c
p1239
aV\u30b7\u30fc\u30a8\u30b9\u30ed\u30b8\u30cd\u30c3\u30c8
p1240
aV\u30b7\u30fc\u30b7\u30fc\u30a8\u30b9
p1241
aV\u30b7\u30fc\u30c9
p1242
aV\uff23\uff2b\uff24
p1243
aV\u30b7\u30fc\u30c6\u30a3\u30fc\u30a8\u30b9
p1244
aV\uff23\uff24\uff27
p1245
aV\u30b7\u30fc\u30ba\u30e1\u30f3
p1246
aV\u30b7\u30fc\u30de
p1247
aV\u30b7\u30a4\u30a8\u30e0\u30fb\u30b7\u30a4
p1248
aV\u30a2\u30c9\u30a2\u30fc\u30ba
p1249
aV\u30b7\u30b0\u30de\u30af\u30b7\u30b9
p1250
aV\u5869\u91ce\u7fa9\u88fd\u85ac
p1251
aV\u30b7\u30fc\u30dc\u30f3
p1252
aV\u30b7\u30b0\u30de\u5149\u6a5f
p1253
aV\uff23\uff24\uff33
p1254
aV\u30b7\u30ad\u30dc\u30a6
p1255
aV\u6ecb\u8cc0\u9280\u884c
p1256
aV\uff33\uff2f\uff2c\u3000\uff28\uff4f\uff4c\uff44\uff49\uff4e\uff47\uff53
p1257
aV\u30b7\u30b9\u30c6\u30e0\u30a4\u30f3\u30c6\u30b0\u30ec\u30fc\u30bf
p1258
aV\u30b7\u30b9\u30c6\u30e0\u30fb\u30c6\u30af\u30ce\u30ed\u30b8\u30fc\u30fb\u30a2\u30a4
p1259
aV\u30b7\u30b9\u30c6\u30e0\u3000\u30c7\u30a3
p1260
aV\u91cd\u677e\u88fd\u4f5c\u6240
p1261
aV\u30b7\u30b9\u30c6\u30e0\u30ba\u30fb\u30c7\u30b6\u30a4\u30f3
p1262
aV\u56db\u56fd\u5316\u6210\u5de5\u696d
p1263
aV\u30b7\u30b9\u30c6\u30e0\u30bd\u30d5\u30c8
p1264
aV\u30b7\u30b9\u30c6\u30e0\u60c5\u5831
p1265
aV\u56db\u56fd\u96fb\u529b
p1266
aV\u56db\u56fd\u9280\u884c
p1267
aV\u30b7\u30b9\u30c6\u30e0\u30fb\u30ed\u30b1\u30fc\u30b7\u30e7\u30f3
p1268
aV\u30b7\u30b9\u30e1\u30c3\u30af\u30b9
p1269
aV\u30b7\u30b9\u30c6\u30e0\u30ea\u30b5\u30fc\u30c1
p1270
aV\u30b7\u30c0\u30fc
p1271
aV\u30b7\u30c0\u30c3\u30af\u30b9
p1272
aV\u30b7\u30b9\u30c6\u30ca
p1273
aV\u8cc7\u751f\u5802
p1274
aV\u9759\u5ca1\u30ac\u30b9
p1275
aV\u4e03\u5341\u4e03\u9280\u884c
p1276
aV\u9759\u5ca1\u9280\u884c
p1277
aV\u6307\u6708\u96fb\u6a5f\u88fd\u4f5c\u6240
p1278
aV\u30b7\u30ca\u30cd\u30f3
p1279
aV\u829d\u6d66\u30e1\u30ab\u30c8\u30ed\u30cb\u30af\u30b9
p1280
aV\uff33\uff28\uff29\uff26\uff34
p1281
aV\u30b7\u30c1\u30ba\u30f3\u30db\u30fc\u30eb\u30c7\u30a3\u30f3\u30b0\u30b9
p1282
aV\u54c1\u5ddd\u30ea\u30d5\u30e9\u30af\u30c8\u30ea\u30fc\u30ba
p1283
aV\u30b7\u30ce\u30d6\u30d5\u30fc\u30ba
p1284
aV\u30b7\u30ce\u30b1\u30f3\u30b0\u30eb\u30fc\u30d7
p1285
aV\u829d\u6d66\u96fb\u5b50
p1286
aV\u7be0\u5d0e\u5c4b
p1287
aV\u6f81\u6fa4\u5009\u5eab
p1288
aV\u5cf6\u7cbe\u6a5f\u88fd\u4f5c\u6240
p1289
aV\u3057\u307e\u3080\u3089
p1290
aV\u30b7\u30de\u30ce
p1291
aV\u5cf6\u6d25\u88fd\u4f5c\u6240
p1292
aV\u6f81\u8c37\u5de5\u696d
p1293
aV\u30b7\u30d9\u30fc\u30eb
p1294
aV\u5cf6\u5fe0
p1295
aV\u5cf6\u6839\u9280\u884c
p1296
aV\u6e05\u6c34\u5efa\u8a2d
p1297
aV\u30b7\u30df\u30c3\u30af\u30db\u30fc\u30eb\u30c7\u30a3\u30f3\u30b0\u30b9
p1298
aV\u79c0\u82f1\u4e88\u5099\u6821
p1299
aV\u30b7\u30e5\u30c3\u30d4\u30f3
p1300
aV\u30b7\u30e7\u30fc\u30a8\u30a4\u30b3\u30fc\u30dd\u30ec\u30fc\u30b7\u30e7\u30f3
p1301
aV\u30b7\u30e7\u30fc\u30b1\u30fc\u30b9\u30fb\u30c6\u30a3\u30fc\u30d3\u30fc
p1302
aV\u30b7\u30e3\u30eb\u30ec
p1303
aV\u30b7\u30e2\u30b8\u30de
p1304
aV\uff33\uff28\uff2f\uff0d\uff22\uff29
p1305
aV\u30b7\u30e3\u30fc\u30d7
p1306
aV\u30a8\u30b9\u30fb\u30b5\u30a4\u30a8\u30f3\u30b9
p1307
aV\u6e05\u6c34\u9280\u884c
p1308
aV\u6b63\u6804\u98df\u54c1\u5de5\u696d
p1309
aV\u662d\u5149\u901a\u5546
p1310
aV\u30d2\u30e5\u30fc\u30ea\u30c3\u30af
p1311
aV\uff33\uff28\uff2f\uff25\uff29
p1312
aV\uff33\uff25\u30db\u30fc\u30eb\u30c7\u30a3\u30f3\u30b0\u30b9\u30fb\u30a2\u30f3\u30c9\u30fb\u30a4\u30f3\u30ad\u30e5\u30d9\u30fc\u30b7\u30e7\u30f3\u30ba
p1313
aV\u30b7\u30e7\u30fc\u30ef
p1314
aV\u677e\u7af9
p1315
aV\u677e\u98a8
p1316
aV\u5546\u8239\u4e09\u4e95
p1317
aV\u30b7\u30e7\u30fc\u30dc\u30f3\u30c9\u30db\u30fc\u30eb\u30c7\u30a3\u30f3\u30b0\u30b9
p1318
aV\u7701\u96fb\u820e
p1319
aV\u662d\u548c\u771f\u7a7a
p1320
aV\u662d\u548c\u9244\u5de5
p1321
aV\u662d\u548c\u30b7\u30b9\u30c6\u30e0\u30a8\u30f3\u30b8\u30cb\u30a2\u30ea\u30f3\u30b0
p1322
aV\u662d\u6587\u793e
p1323
aV\u662d\u548c\u5316\u5b66\u5de5\u696d
p1324
aV\u662d\u548c\u7523\u696d
p1325
aV\u662d\u548c\u96fb\u5de5
p1326
aV\u662d\u548c\u96fb\u7dda\u30db\u30fc\u30eb\u30c7\u30a3\u30f3\u30b0\u30b9
p1327
aV\u662d\u548c\u30db\u30fc\u30eb\u30c7\u30a3\u30f3\u30b0\u30b9
p1328
aV\u662d\u548c\u30b7\u30a7\u30eb\u77f3\u6cb9
p1329
aV\u30b7\u30ed\u30ad\u5de5\u696d
p1330
aV\u767d\u9ce9
p1331
aV\u795e\u6804
p1332
aV\u4fe1\u8d8a\u5316\u5b66\u5de5\u696d
p1333
aV\u30b7\u30e9\u30a4\u96fb\u5b50\u5de5\u696d
p1334
aV\u662d\u548c\u98db\u884c\u6a5f\u5de5\u696d
p1335
aV\u662d\u548c\u30d1\u30c3\u30af\u30b9
p1336
aV\u4fe1\u8d8a\u30dd\u30ea\u30de\u30fc
p1337
aV\u65b0\u5ddd
p1338
aV\u30b7\u30e7\u30af\u30d6\u30f3
p1339
aV\u30b7\u30ea\u30b3\u30f3\u30b9\u30bf\u30b8\u30aa
p1340
aV\u65b0\u6643\u5de5\u696d
p1341
aV\u795e\u92fc\u92fc\u7dda\u5de5\u696d
p1342
aV\u795e\u92fc\u5546\u4e8b
p1343
aV\u65b0\u5149\u5546\u4e8b
p1344
aV\u9032\u5b66\u4f1a
p1345
aV\u795e\u59eb\u30d0\u30b9
p1346
aV\u30b7\u30f3\u30d5\u30a9\u30cb\u30a2\u30c6\u30af\u30ce\u30ed\u30b8\u30fc
p1347
aV\u30b7\u30f3\u30af\u30ec\u30a4\u30e4
p1348
aV\u65b0\u4eac\u6210\u96fb\u9244
p1349
aV\u65b0\u96fb\u5143\u5de5\u696d
p1350
aV\u30b7\u30f3\u30c7\u30f3\u30fb\u30cf\u30a4\u30c6\u30c3\u30af\u30b9
p1351
aV\u65b0\u6771\u5de5\u696d
p1352
aV\u795e\u6771\u5857\u6599
p1353
aV\u795e\u92fc\u74b0\u5883\u30bd\u30ea\u30e5\u30fc\u30b7\u30e7\u30f3
p1354
aV\u65b0\u30b3\u30b9\u30e2\u30b9\u96fb\u6a5f
p1355
aV\u65b0\u5149\u96fb\u6c17\u5de5\u696d
p1356
aV\u65b0\u5185\u5916\u7dbf
p1357
aV\u65b0\u6771
p1358
aV\u65b0\u6771\u4eac\u30b0\u30eb\u30fc\u30d7
p1359
aV\u65b0\u661f\u5802
p1360
aV\u65b0\u65e5\u672c\u79d1\u5b66
p1361
aV\u3044\u3067\u3042
p1362
aV\u65b0\u65e5\u9244\u4f4f\u91d1\u30bd\u30ea\u30e5\u30fc\u30b7\u30e7\u30f3\u30ba
p1363
aV\u30b7\u30f3\u30cb\u30c3\u30bf\u30f3
p1364
aV\u65b0\u65e5\u9435\u4f4f\u91d1
p1365
aV\u65b0\u65e5\u672c\u5efa\u8a2d
p1366
aV\u30de\u30fc\u30c1\u30e3\u30f3\u30c8\u30fb\u30d0\u30f3\u30ab\u30fc\u30ba
p1367
aV\u65b0\u65e5\u672c\u7121\u7dda
p1368
aV\u65b0\u65e5\u672c\u7a7a\u8abf
p1369
aV\u65b0\u65e5\u672c\u5efa\u7269
p1370
aV\u65b0\u5831\u56fd\u88fd\u9244
p1371
aV\u30b7\u30f3\u30dd
p1372
aV\uff2e\uff33\u30e6\u30ca\u30a4\u30c6\u30c3\u30c9\u6d77\u904b
p1373
aV\uff2e\uff33\u30e6\u30ca\u30a4\u30c6\u30c3\u30c9\u5185\u822a\u6d77\u904b
p1374
aV\u30b7\u30f3\u30d0\u30a4\u30aa\u88fd\u85ac
p1375
aV\u30b7\u30f3\u30d7\u30ec\u30af\u30b9\u30fb\u30d5\u30a1\u30a4\u30ca\u30f3\u30b7\u30e3\u30eb\u30fb\u30db\u30fc\u30eb\u30c7\u30a3\u30f3\u30b0\u30b9
p1376
aV\u30b7\u30f3\u30d7\u30ed\u30e1\u30f3\u30c6
p1377
aV\u30b8\u30fc\u30a8\u30b9\u30fb\u30e6\u30a2\u30b5\u3000\u30b3\u30fc\u30dd\u30ec\u30fc\u30b7\u30e7\u30f3
p1378
aV\u30a2\u30b9\u30e2
p1379
aV\u65b0\u660e\u548c\u5de5\u696d
p1380
aV\u9032\u548c
p1381
aV\u30b7\u30f3\u30ef\u30a2\u30fc\u30c8\u30aa\u30fc\u30af\u30b7\u30e7\u30f3
p1382
aV\u65b0\u65e5\u672c\u7406\u5316
p1383
aV\uff2a\uff29\uff25\uff23
p1384
aV\uff2a\uff33\uff32
p1385
aV\u30b8\u30fc\u30a8\u30eb\u30b5\u30a4\u30a8\u30f3\u30b9
p1386
aV\u30b8\u30a7\u30fc\u30b7\u30fc\u30fb\u30b3\u30e0\u30b5
p1387
aV\uff27\uff2d\uff22
p1388
aV\u65e5\u672c\u30a2\u30b8\u30a2\u30b0\u30eb\u30fc\u30d7
p1389
aV\uff27\uff2d\uff2f\u30da\u30a4\u30e1\u30f3\u30c8\u30b2\u30fc\u30c8\u30a6\u30a7\u30a4
p1390
aV\u30b8\u30fc\u30a8\u30d5\u30b7\u30fc
p1391
aV\u30b8\u30fc\u30f3\u30ba\u30e1\u30a4\u30c8
p1392
aV\u30b8\u30a7\u30a4\u30b3\u30e0\u30db\u30fc\u30eb\u30c7\u30a3\u30f3\u30b0\u30b9
p1393
aV\u30b8\u30a7\u30a4\u30a8\u30a4\u30b7\u30fc\u30ea\u30af\u30eb\u30fc\u30c8\u30e1\u30f3\u30c8
p1394
aV\uff2a\uff33\uff30
p1395
aV\u30b8\u30a7\u30a4\u30fb\u30a8\u30b9\u30b3\u30e0\u30db\u30fc\u30eb\u30c7\u30a3\u30f3\u30b0\u30b9
p1396
aV\uff2a\uff30\u30db\u30fc\u30eb\u30c7\u30a3\u30f3\u30b0\u30b9
p1397
aV\u30b8\u30a7\u30a4\u3000\u30a8\u30d5\u3000\u30a4\u30fc\u3000\u30db\u30fc\u30eb\u30c7\u30a3\u30f3\u30b0\u30b9
p1398
aV\uff2a\u30b9\u30c8\u30ea\u30fc\u30e0
p1399
aV\uff2a\uff2d\uff33
p1400
aV\u30b8\u30a7\u30a4\u30db\u30fc\u30eb\u30c7\u30a3\u30f3\u30b0\u30b9
p1401
aV\uff27\uff2d\uff2f\u30af\u30e9\u30a6\u30c9
p1402
aV\u30b8\u30a7\u30a4\u30a2\u30a4\u30a8\u30cc
p1403
aV\u30b8\u30a7\u30fc\u30bd\u30f3
p1404
aV\u30b8\u30fc\u30a8\u30cc\u30a2\u30a4\u30b0\u30eb\u30fc\u30d7
p1405
aV\uff2d\uff49\uff4e\uff4f\uff52\uff49\u30bd\u30ea\u30e5\u30fc\u30b7\u30e7\u30f3\u30ba
p1406
aV\u30b8\u30aa\u30de\u30c6\u30c3\u30af
p1407
aV\uff2a\uff22\u30a4\u30ec\u30d6\u30f3
p1408
aV\u30b8\u30fc\u30c0\u30c3\u30c8
p1409
aV\u30b8\u30a7\u30a4\u30c6\u30c3\u30af
p1410
aV\u30b8\u30aa\u30b9\u30bf\u30fc
p1411
aV\u30b8\u30a7\u30a4\u30b0\u30eb\u30fc\u30d7\u30db\u30fc\u30eb\u30c7\u30a3\u30f3\u30b0\u30b9
p1412
aV\u30b8\u30a7\u30b3\u30fc
p1413
aV\u30b8\u30fc\u30f3\u30c6\u30af\u30ce\u30b5\u30a4\u30a8\u30f3\u30b9
p1414
aV\u30b8\u30a7\u30a4\u30a8\u30b9\u30a8\u30b9
p1415
aV\u3058\u3052\u3093
p1416
aV\u30b8\u30a7\u30cd\u30ec\u30fc\u30b7\u30e7\u30f3\u30d1\u30b9
p1417
aV\uff27\uff2d\uff2f\u30ea\u30b5\u30fc\u30c1
p1418
aV\uff27\uff2d\uff2f\u3000\uff34\uff25\uff23\uff28
p1419
aV\uff27\uff2d\uff2f\u30af\u30ea\u30c3\u30af\u30db\u30fc\u30eb\u30c7\u30a3\u30f3\u30b0\u30b9
p1420
aV\u6975\u697d\u6e6f
p1421
aV\u5730\u76e4\u30cd\u30c3\u30c8\u30db\u30fc\u30eb\u30c7\u30a3\u30f3\u30b0\u30b9
p1422
aV\uff2a\uff36\uff23\u30b1\u30f3\u30a6\u30c3\u30c9
p1423
aV\uff2a\uff38\u30db\u30fc\u30eb\u30c7\u30a3\u30f3\u30b0\u30b9
p1424
aV\uff2a\uff0e\u30d5\u30ed\u30f3\u30c8\u3000\u30ea\u30c6\u30a4\u30ea\u30f3\u30b0
p1425
aV\u30a4\u30aa\u30f3
p1426
aV\uff27\uff23\uff21\u30b5\u30f4\u30a3\u30a2\u30f3
p1427
aV\u81ea\u91cd\u5802
p1428
aV\u3058\u3082\u3068\u30db\u30fc\u30eb\u30c7\u30a3\u30f3\u30b0\u30b9
p1429
aV\u30b8\u30b0\u30bd\u30fc
p1430
aV\u30b8\u30e3\u30cb\u30b9\u5de5\u696d
p1431
aV\u86c7\u306e\u76ee\u30df\u30b7\u30f3\u5de5\u696d
p1432
aV\uff2a\uff2b\u30db\u30fc\u30eb\u30c7\u30a3\u30f3\u30b0\u30b9
p1433
aV\u30b8\u30e3\u30b9\u30c8\u30b7\u30b9\u30c6\u30e0
p1434
aV\u30b8\u30e3\u30b9\u30c6\u30c3\u30af
p1435
aV\u30ab\u30fc\u30c1\u30b9\u30db\u30fc\u30eb\u30c7\u30a3\u30f3\u30b0\u30b9
p1436
aV\u30b8\u30e3\u30b9\u30c8\u30d7\u30e9\u30f3\u30cb\u30f3\u30b0
p1437
aV\u30b8\u30e3\u30c3\u30af\u30b9
p1438
aV\u30b5\u30cf\u30c0\u30a4\u30e4\u30e2\u30f3\u30c9
p1439
aV\u30b8\u30e3\u30d1\u30f3\u30a4\u30f3\u30d9\u30b9\u30c8\u30e1\u30f3\u30c8\u30a2\u30c9\u30d0\u30a4\u30b6\u30fc
p1440
aV\u30b8\u30e3\u30d1\u30f3\u30d9\u30b9\u30c8\u30ec\u30b9\u30ad\u30e5\u30fc\u30b7\u30b9\u30c6\u30e0
p1441
aV\u30b8\u30e3\u30d1\u30f3\u30de\u30c6\u30ea\u30a2\u30eb
p1442
aV\u30b8\u30e3\u30d1\u30f3\u30d5\u30fc\u30ba
p1443
aV\u30b8\u30e3\u30d1\u30f3\u30c7\u30a3\u30b9\u30d7\u30ec\u30a4
p1444
aV\u30b8\u30e3\u30e0\u30b3
p1445
aV\u30b8\u30e3\u30d5\u30b3
p1446
aV\u30a4\u30aa\u30f3\u30c7\u30a3\u30e9\u30a4\u30c8
p1447
aV\u30b8\u30e3\u30d1\u30f3\u30d1\u30a4\u30eb
p1448
aV\u30b8\u30e3\u30d1\u30f3\u30b7\u30b9\u30c6\u30e0
p1449
aV\u30b8\u30e3\u30d1\u30f3\u30fb\u30c6\u30a3\u30c3\u30b7\u30e5\u30fb\u30a8\u30f3\u30b8\u30cb\u30a2\u30ea\u30f3\u30b0
p1450
aV\uff2a\uff21\uff2c\uff23\uff2f\u30db\u30fc\u30eb\u30c7\u30a3\u30f3\u30b0\u30b9
p1451
aV\u30a6\u30c3\u30c9\u30ef\u30f3
p1452
aV\uff2a\uff21\uff2c\uff35\uff38
p1453
aV\u30d9\u30ea\u30c6
p1454
aV\u30b8\u30e5\u30fc\u30c6\u30c3\u30af\u30db\u30fc\u30eb\u30c7\u30a3\u30f3\u30b0\u30b9
p1455
aV\uff2a\uff35\uff2b\uff29
p1456
aV\uff2a\uff25\uff35\uff27\uff29\uff21
p1457
aV\u30b8\u30e5\u30f3\u30c6\u30f3\u30c9\u30fc
p1458
aV\u5341\u516b\u9280\u884c
p1459
aV\u5341\u516d\u9280\u884c
p1460
aV\u5e38\u548c\u30db\u30fc\u30eb\u30c7\u30a3\u30f3\u30b0\u30b9
p1461
aV\u30b8\u30e7\u30eb\u30c0\u30f3
p1462
aV\u4e0a\u65b0\u96fb\u6a5f
p1463
aV\u57ce\u5357\u9032\u5b66\u7814\u7a76\u793e
p1464
aV\u30b8\u30e7\u30a4\u30d5\u30eb
p1465
aV\u30b8\u30e7\u30a4\u30d5\u30eb\u672c\u7530
p1466
aV\u5e38\u78d0\u8208\u7523
p1467
aV\u60c5\u5831\u4f01\u753b
p1468
aV\u60c5\u5831\u6280\u8853\u958b\u767a
p1469
aV\u5e38\u78d0\u958b\u767a
p1470
aV\u4fa1\u5024\u958b\u767a
p1471
aV\u5e38\u967d\u9280\u884c
p1472
aV\uff33\uff24\u30a8\u30f3\u30bf\u30fc\u30c6\u30a4\u30e1\u30f3\u30c8
p1473
aV\u30b9\u30ac\u30a4\u5316\u5b66\u5de5\u696d
p1474
aV\u6c34\u9053\u6a5f\u5de5
p1475
aV\u3059\u304b\u3044\u3089\u30fc\u304f
p1476
aV\u30b9\u30fc\u30d1\u30fc\u30d0\u30ea\u30e5\u30fc
p1477
aV\u30b9\u30ab\u30d1\u30fc\uff2a\uff33\uff21\uff34\u30db\u30fc\u30eb\u30c7\u30a3\u30f3\u30b0\u30b9
p1478
aV\u6749\u6751\u5009\u5eab
p1479
aV\u30b9\u30fc\u30d1\u30fc\u30d0\u30c3\u30b0
p1480
aV\u30b9\u30fc\u30d1\u30fc\u5927\u6804
p1481
aV\u6749\u7530\u30a8\u30fc\u30b9
p1482
aV\u30b9\u30fc\u30d1\u30fc\u30c4\u30fc\u30eb
p1483
aV\u6749\u672c\u5546\u4e8b
p1484
aV\u30b9\u30ae\u30db\u30fc\u30eb\u30c7\u30a3\u30f3\u30b0\u30b9
p1485
aV\u30b9\u30ba\u30ad
p1486
aV\u30b9\u30ba\u30b1\u30f3
p1487
aV\u9234\u7e2b\u5de5\u696d
p1488
aV\u9234\u8302\u5668\u5de5
p1489
aV\u30b9\u30ba\u30c7\u30f3
p1490
aV\u9234\u6728\u91d1\u5c5e\u5de5\u696d
p1491
aV\u9234\u6728
p1492
aV\u52a9\u5ddd\u96fb\u6c17\u5de5\u696d
p1493
aV\u30b9\u30bf\u30fc\u30c4\u30b3\u30fc\u30dd\u30ec\u30fc\u30b7\u30e7\u30f3
p1494
aV\u30b9\u30bf\u30fc\u30c4\u51fa\u7248
p1495
aV\u30b9\u30bf\u30b8\u30aa\u30a2\u30ea\u30b9
p1496
aV\uff33\u3000\uff26\uff4f\uff4f\uff44\uff53
p1497
aV\u30b9\u30bf\u30fc\u30c8\u30c8\u30a5\u30c7\u30a4
p1498
aV\u30b9\u30bf\u30fc\u30d5\u30e9\u30a4\u30e4\u30fc
p1499
aV\u30b9\u30bf\u30f3\u30ec\u30fc\u96fb\u6c17
p1500
aV\u30b9\u30bf\u30fc\u30c6\u30a3\u30a2
p1501
aV\u9234\u4e0e\u30b7\u30f3\u30ef\u30fc\u30c8
p1502
aV\u30b9\u30bf\u30fc\u30fb\u30de\u30a4\u30ab
p1503
aV\u30b9\u30bf\u30fc\u30bc\u30f3
p1504
aV\u30b9\u30bf\u30fc\u7cbe\u5bc6
p1505
aV\u30b9\u30bf\u30fc\u30db\u30fc\u30eb\u30c7\u30a3\u30f3\u30b0\u30b9
p1506
aV\u30b9\u30c6\u30e9\u3000\u30b1\u30df\u30d5\u30a1
p1507
aV\u30b9\u30d1\u30f3\u30af\u30ea\u30fc\u30c8\u30b3\u30fc\u30dd\u30ec\u30fc\u30b7\u30e7\u30f3
p1508
aV\u30b9\u30d0\u30eb\u8208\u696d
p1509
aV\u30b9\u30c8\u30ea\u30fc\u30e0
p1510
aV\u30b9\u30da\u30fc\u30b9
p1511
aV\u30b9\u30c6\u30c3\u30d7
p1512
aV\u30b9\u30ce\u30fc\u30d4\u30fc\u30af
p1513
aV\u6634
p1514
aV\u30b9\u30d1\u30fc\u30af\u30b9\u30fb\u30b0\u30eb\u30fc\u30d7
p1515
aV\u30b9\u30df\u30c0\u30b3\u30fc\u30dd\u30ec\u30fc\u30b7\u30e7\u30f3
p1516
aV\u4f4f\u53cb\u5927\u962a\u30bb\u30e1\u30f3\u30c8
p1517
aV\u4f4f\u53cb\u91cd\u6a5f\u68b0\u5de5\u696d
p1518
aV\u4f4f\u53cb\u7cbe\u5316
p1519
aV\uff33\uff23\uff33\uff2b
p1520
aV\u4f4f\u53cb\u91d1\u5c5e\u9271\u5c71
p1521
aV\u30b9\u30da\u30fc\u30b9\u30b7\u30e3\u30ef\u30fc\u30cd\u30c3\u30c8\u30ef\u30fc\u30af
p1522
aV\u4f4f\u53cb\u30b4\u30e0\u5de5\u696d
p1523
aV\u4f4f\u53cb\u5316\u5b66
p1524
aV\u4f4f\u77f3\u30db\u30fc\u30eb\u30c7\u30a3\u30f3\u30b0\u30b9
p1525
aV\u4f4f\u53cb\u5546\u4e8b
p1526
aV\u4f4f\u53cb\u6797\u696d
p1527
aV\u4f4f\u6c5f\u7e54\u7269
p1528
aV\u4f4f\u53cb\u5009\u5eab
p1529
aV\u5927\u962a\u30c1\u30bf\u30cb\u30a6\u30e0\u30c6\u30af\u30ce\u30ed\u30b8\u30fc\u30ba
p1530
aV\u30b9\u30ea\u30fc\u30a8\u30d5
p1531
aV\u30b9\u30ea\u30fc\u30fb\u30c7\u30a3\u30fc\u30fb\u30de\u30c8\u30ea\u30c3\u30af\u30b9
p1532
aV\u4f4f\u53cb\u30d9\u30fc\u30af\u30e9\u30a4\u30c8
p1533
aV\u4f4f\u53cb\u7cbe\u5bc6\u5de5\u696d
p1534
aV\u4f4f\u53cb\u96fb\u6c17\u5de5\u696d
p1535
aV\u4f4f\u53cb\u4e0d\u52d5\u7523\u8ca9\u58f2
p1536
aV\u4f4f\u53cb\u4e0d\u52d5\u7523
p1537
aV\u4f4f\u53cb\u96fb\u8a2d
p1538
aV\u897f\u83ef\u7523\u696d
p1539
aV\u6210\u5b66\u793e
p1540
aV\u30bb\u30fc\u30e9\u30fc\u5e83\u544a
p1541
aV\u30bb\u30fc\u30e9\u30fc\u4e07\u5e74\u7b46
p1542
aV\u30bb\u30fc\u30ec\u30f3
p1543
aV\u751f\u5316\u5b66\u5de5\u696d
p1544
aV\u56f3\u7814
p1545
aV\u745e\u5149
p1546
aV\u30ec\u30c3\u30af
p1547
aV\u30b9\u30ea\u30fc\u30d7\u30ed\u30b0\u30eb\u30fc\u30d7
p1548
aV\u30b9\u30eb\u30ac\u9280\u884c
p1549
aV\u30bb\u30a4\u30b3\u30fc\u30db\u30fc\u30eb\u30c7\u30a3\u30f3\u30b0\u30b9
p1550
aV\u30bb\u30a4\u30b3\u30fc\u30a8\u30d7\u30bd\u30f3
p1551
aV\u30bb\u30a4\u30d2\u30e7\u30fc
p1552
aV\u897f\u90e8\u96fb\u6a5f
p1553
aV\u7cbe\u5de5\u6280\u7814
p1554
aV\u6b63\u8208\u96fb\u6a5f\u88fd\u4f5c\u6240
p1555
aV\u7cbe\u990a\u8ed2
p1556
aV\u897f\u83f1\u96fb\u6a5f
p1557
aV\u30bb\u30a4\u30ce\u30fc\u30db\u30fc\u30eb\u30c7\u30a3\u30f3\u30b0\u30b9
p1558
aV\u975c\u7532
p1559
aV\u897f\u90e8\u96fb\u6c17\u5de5\u696d
p1560
aV\u4e16\u7d00\u6771\u6025\u5de5\u696d
p1561
aV\u897f\u6b66\u30db\u30fc\u30eb\u30c7\u30a3\u30f3\u30b0\u30b9
p1562
aV\u7a4d\u6c34\u5316\u6210\u54c1\u5de5\u696d
p1563
aV\u7a4d\u6c34\u5de5\u6a5f\u88fd\u4f5c\u6240
p1564
aV\u7a4d\u6c34\u5316\u5b66\u5de5\u696d
p1565
aV\u7a4d\u6c34\u6a39\u8102
p1566
aV\u661f\u548c\u96fb\u6a5f
p1567
aV\u6e05\u548c\u4e2d\u592e\u30db\u30fc\u30eb\u30c7\u30a3\u30f3\u30b0\u30b9
p1568
aV\u30bb\u30ac\u30b5\u30df\u30fc\u30db\u30fc\u30eb\u30c7\u30a3\u30f3\u30b0\u30b9
p1569
aV\u7a4d\u6c34\u30cf\u30a6\u30b9
p1570
aV\u30bb\u30ad
p1571
aV\u30bb\u30ad\u30c1\u30e5\u30fc
p1572
aV\u30bb\u30b3\u30e0\u4e0a\u4fe1\u8d8a
p1573
aV\u30bb\u30be\u30f3\u60c5\u5831\u30b7\u30b9\u30c6\u30e0\u30ba
p1574
aV\u30bb\u30b3\u30cb\u30c3\u30af\u30db\u30fc\u30eb\u30c7\u30a3\u30f3\u30b0\u30b9
p1575
aV\u30bb\u30b3\u30e0
p1576
aV\u30bb\u30d5\u30c6\u30c3\u30af
p1577
aV\u30bb\u30c3\u30af
p1578
aV\u30bb\u30ad\u30e5\u30a2\u30f4\u30a7\u30a4\u30eb
p1579
aV\u30bb\u30d6\u30f3\uff06\u30a2\u30a4\u30fb\u30db\u30fc\u30eb\u30c7\u30a3\u30f3\u30b0\u30b9
p1580
aV\u77f3\u6cb9\u8cc7\u6e90\u958b\u767a
p1581
aV\u30bb\u30ad\u30c9
p1582
aV\u651d\u6d25\u88fd\u6cb9
p1583
aV\u30bb\u30f3\u30b3\u30f3\u7269\u6d41
p1584
aV\u6cc9\u5dde\u96fb\u696d
p1585
aV\u30bb\u30d7\u30c6\u30fc\u30cb\u30fb\u30db\u30fc\u30eb\u30c7\u30a3\u30f3\u30b0\u30b9
p1586
aV\uff33\uff25\uff2d\uff29\uff34\uff25\uff23
p1587
aV\u30bb\u30eb\u30b7\u30fc\u30c9
p1588
aV\u30bb\u30ec\u30b9
p1589
aV\u30bb\u30ea\u30a2
p1590
aV\u30bb\u30e1\u30c0\u30a4\u30f3
p1591
aV\u30bb\u30f3\u30b3\u30fc
p1592
aV\u30bb\u30ec\u30b9\u30dd
p1593
aV\u30bb\u30d6\u30f3\u5de5\u696d
p1594
aV\u5343\u8da3\u4f1a
p1595
aV\u6771\u4eac\u30bb\u30f3\u30c1\u30e5\u30ea\u30fc\u30ea\u30fc\u30b9
p1596
aV\u30bb\u30f3\u30c8\u30b1\u30a2\u30fb\u30db\u30fc\u30eb\u30c7\u30a3\u30f3\u30b0
p1597
aV\u30bb\u30f3\u30c8\u30e9\u30eb\u7dcf\u5408\u958b\u767a
p1598
aV\u30bb\u30f3\u30c8\u30e9\u30eb\u30b9\u30dd\u30fc\u30c4
p1599
aV\u4ed9\u6ce2\u7cd6\u5316\u5de5\u696d
p1600
aV\u30bb\u30f3\u30c1\u30e5\u30ea\u30fc\uff12\uff11\u30fb\u30b8\u30e3\u30d1\u30f3
p1601
aV\u30bb\u30f3\u30c8\u30e9\u30eb\u785d\u5b50
p1602
aV\uff23\uff33\uff33\u30db\u30fc\u30eb\u30c7\u30a3\u30f3\u30b0\u30b9
p1603
aV\u30bb\u30f3\u30c8\u30e9\u30eb\u8b66\u5099\u4fdd\u969c
p1604
aV\u30bc\u30c3\u30c8\u30f3
p1605
aV\u30bc\u30cb\u30b9\u7fbd\u7530\u30db\u30fc\u30eb\u30c7\u30a3\u30f3\u30b0\u30b9
p1606
aV\u30bc\u30ed
p1607
aV\u30c6\u30ec\u30d3\u671d\u65e5\u30db\u30fc\u30eb\u30c7\u30a3\u30f3\u30b0\u30b9
p1608
aV\u9322\u9ad8\u7d44
p1609
aV\u6771\u71c3\u30bc\u30cd\u30e9\u30eb\u77f3\u6cb9
p1610
aV\u30bc\u30d3\u30aa
p1611
aV\u30bc\u30ea\u30a2\u65b0\u85ac\u5de5\u696d
p1612
aV\u30bc\u30cd\u30e9\u30eb\u30d1\u30c3\u30ab\u30fc
p1613
aV\u30bb\u30d6\u30f3\u30b7\u30fc\u30ba\u30db\u30fc\u30eb\u30c7\u30a3\u30f3\u30b0\u30b9
p1614
aV\u30bc\u30c3\u30c8
p1615
aV\u5168\u56fd\u4fdd\u8a3c
p1616
aV\u30bd\u30fc\u30b9\u30cd\u30af\u30b9\u30c8
p1617
aV\u305d\u30fc\u305b\u3044\u30b0\u30eb\u30fc\u30d7
p1618
aV\u30bc\u30f3\u30b7\u30e7\u30fc\u30db\u30fc\u30eb\u30c7\u30a3\u30f3\u30b0\u30b9
p1619
aV\uff21\uff2e\uff21\u30db\u30fc\u30eb\u30c7\u30a3\u30f3\u30b0\u30b9
p1620
aV\u30bd\u30fc\u30c0\u30cb\u30c3\u30ab
p1621
aV\u5275\u5065\u793e
p1622
aV\u30bd\u30fc\u30d0\u30eb
p1623
aV\u7d9c\u7814\u5316\u5b66
p1624
aV\u5009\u5eab\u7cbe\u7df4
p1625
aV\u30bc\u30f3\u30ea\u30f3
p1626
aV\u7dcf\u5408\u30e1\u30c7\u30a3\u30ab\u30eb
p1627
aV\u7d9c\u5408\u8b66\u5099\u4fdd\u969c
p1628
aV\u5275\u901a
p1629
aV\u30bd\u30b1\u30c3\u30c4
p1630
aV\u66fd\u7530\u9999\u6599
p1631
aV\u7dcf\u5408\u5546\u7814
p1632
aV\u7dcf\u533b\u7814\u30db\u30fc\u30eb\u30c7\u30a3\u30f3\u30b0\u30b9
p1633
aV\u53cc\u4fe1\u96fb\u6a5f
p1634
aV\u7d9c\u5408\u81e8\u5e8a\u30db\u30fc\u30eb\u30c7\u30a3\u30f3\u30b0\u30b9
p1635
aV\u30a8\u30e0\u30b9\u30ea\u30fc
p1636
aV\u30bd\u30d5\u30c8\u30a6\u30a7\u30a2\u30fb\u30b5\u30fc\u30d3\u30b9
p1637
aV\u30bd\u30c7\u30a3\u30c3\u30af
p1638
aV\u30bd\u30c8\u30fc
p1639
aV\u30bd\u30cd\u30c3\u30af
p1640
aV\u30bd\u30ce\u30b3\u30e0
p1641
aV\u30bd\u30d5\u30a3\u30a2\u30db\u30fc\u30eb\u30c7\u30a3\u30f3\u30b0\u30b9
p1642
aV\u30bd\u30cb\u30fc\u30d5\u30a3\u30ca\u30f3\u30b7\u30e3\u30eb\u30db\u30fc\u30eb\u30c7\u30a3\u30f3\u30b0\u30b9
p1643
aV\u30bd\u30cb\u30fc
p1644
aV\u30bd\u30d5\u30c8\u30af\u30ea\u30a8\u30a4\u30c8\u30db\u30fc\u30eb\u30c7\u30a3\u30f3\u30b0\u30b9
p1645
aV\u30bd\u30d5\u30c8\u30d0\u30f3\u30af\u30fb\u30c6\u30af\u30ce\u30ed\u30b8\u30fc
p1646
aV\u30bd\u30d5\u30c8\uff19\uff19\u30b3\u30fc\u30dd\u30ec\u30fc\u30b7\u30e7\u30f3
p1647
aV\u30bd\u30d5\u30c8\u30d0\u30f3\u30af
p1648
aV\uff33\uff22\uff29\u30db\u30fc\u30eb\u30c7\u30a3\u30f3\u30b0\u30b9
p1649
aV\u30bd\u30de\u30fc\u30eb
p1650
aV\u30bd\u30d5\u30c8\u30d5\u30ed\u30f3\u30c8
p1651
aV\u30bd\u30d5\u30c8\u30d6\u30ec\u30fc\u30f3
p1652
aV\u30bd\u30d5\u30c8\u30de\u30c3\u30af\u30b9
p1653
aV\uff3a\uff2f\uff21
p1654
aV\u5927\u738b\u88fd\u7d19
p1655
aV\u30bf\u30a4\u30ac\u30fc\u30b9\u30dd\u30ea\u30de\u30fc
p1656
aV\u30bd\u30eb\u30af\u30b7\u30fc\u30ba
p1657
aV\u30bd\u30ea\u30c8\u30f3\u30b7\u30b9\u30c6\u30e0\u30ba
p1658
aV\u5927\u6c23\u793e
p1659
aV\u8c61\u5370\u30de\u30db\u30fc\u30d3\u30f3
p1660
aV\u30b8\u30aa\u30cd\u30af\u30b9\u30c8
p1661
aV\u5927\u5149\u9280\u884c
p1662
aV\u5927\u6210
p1663
aV\u30bf\u30a4\u30bb\u30a4
p1664
aV\u5927\u6210\u30e9\u30df\u30c3\u30af
p1665
aV\u5927\u5e78\u85ac\u54c1
p1666
aV\u5927\u6210\u6e29\u8abf
p1667
aV\u65e5\u9244\u4f4f\u91d1\u30c6\u30c3\u30af\u30b9\u30a8\u30f3\u30b8
p1668
aV\u592a\u5e73\u96fb\u696d
p1669
aV\u5927\u6210\u5efa\u8a2d
p1670
aV\u592a\u5e73\u88fd\u4f5c\u6240
p1671
aV\u5927\u6b63\u88fd\u85ac\u30db\u30fc\u30eb\u30c7\u30a3\u30f3\u30b0\u30b9
p1672
aV\u592a\u967d\u30db\u30fc\u30eb\u30c7\u30a3\u30f3\u30b0\u30b9
p1673
aV\u592a\u5e73\u6d0b\u5de5\u696d
p1674
aV\u592a\u967d\u5316\u5b66
p1675
aV\u592a\u5e73\u6d0b\u8208\u767a
p1676
aV\u5927\u8c4a\u5de5\u696d
p1677
aV\u5927\u5e73\u6d0b\u91d1\u5c5e
p1678
aV\u592a\u5e73\u6d0b\u30bb\u30e1\u30f3\u30c8
p1679
aV\u5927\u5b9d\u904b\u8f38
p1680
aV\u592a\u6d0b\u57fa\u790e\u5de5\u696d
p1681
aV\u592a\u967d\u5de5\u6a5f
p1682
aV\u30bf\u30a6\u30f3\u30cb\u30e5\u30fc\u30b9\u793e
p1683
aV\u592a\u967d\u8a98\u96fb
p1684
aV\u592a\u6d0b\u7269\u7523
p1685
aV\u592a\u6d0b\u5de5\u696d
p1686
aV\u30bf\u30ab\u30ad\u30bf
p1687
aV\u7530\u5ca1\u5316\u5b66\u5de5\u696d
p1688
aV\u30bf\u30ab\u30ad\u30e5\u30fc
p1689
aV\u9ad8\u6728\u8a3c\u5238
p1690
aV\u9ad8\u5cf6
p1691
aV\u9ad8\u7802\u9999\u6599\u5de5\u696d
p1692
aV\u30bf\u30ab\u30bf
p1693
aV\u30bf\u30ab\u30bb
p1694
aV\u9ad8\u7802\u71b1\u5b66\u5de5\u696d
p1695
aV\u9ad8\u5cf6\u5c4b
p1696
aV\u9ad8\u7802\u9435\u5de5
p1697
aV\u30bf\u30ab\u30ae\u30bb\u30a4\u30b3\u30fc
p1698
aV\u30bf\u30ab\u30b7\u30e7\u30fc
p1699
aV\u30a8\u30ec\u30de\u30c6\u30c3\u30af
p1700
aV\u9ad8\u5343\u7a42\u4ea4\u6613
p1701
aV\u30bf\u30ab\u30c1\u30db
p1702
aV\u9ad8\u677e\u6a5f\u68b0\u5de5\u696d
p1703
aV\u9ad8\u7530\u5de5\u696d\u6240
p1704
aV\u30bf\u30ab\u30ce
p1705
aV\u30bf\u30ab\u30c8\u30ea
p1706
aV\u9ad8\u6a4b\u30ab\u30fc\u30c6\u30f3\u30a6\u30a9\u30fc\u30eb\u5de5\u696d
p1707
aV\u9ad8\u7530\u6a5f\u5de5
p1708
aV\u5b9d\u30db\u30fc\u30eb\u30c7\u30a3\u30f3\u30b0\u30b9
p1709
aV\u30bf\u30ab\u30e9\u30b9\u30bf\u30f3\u30c0\u30fc\u30c9
p1710
aV\u9ad8\u677e\u30b3\u30f3\u30b9\u30c8\u30e9\u30af\u30b7\u30e7\u30f3\u30b0\u30eb\u30fc\u30d7
p1711
aV\u30bf\u30ab\u30e9\u30d0\u30a4\u30aa
p1712
aV\u30bf\u30ab\u30e9\u30ec\u30fc\u30d9\u30f3
p1713
aV\u5b9d\u5370\u5237
p1714
aV\u591a\u6728\u5316\u5b66
p1715
aV\u9ad8\u898b\u6ca2\u30b5\u30a4\u30d0\u30cd\u30c6\u30a3\u30c3\u30af\u30b9
p1716
aV\u9ad8\u898b\u6fa4
p1717
aV\u30bf\u30b1\u30c0\u6a5f\u68b0
p1718
aV\u6b66\u7530\u85ac\u54c1\u5de5\u696d
p1719
aV\u6edd\u6ca2\u30cf\u30e0
p1720
aV\u30bf\u30ad\u30d2\u30e8\u30fc
p1721
aV\u30bf\u30ad\u30ed\u30f3
p1722
aV\u30bf\u30af\u30de
p1723
aV\u30bf\u30b1\u30a8\u30a4
p1724
aV\u30bf\u30af\u30df\u30ca
p1725
aV\u6edd\u6fa4\u9244\u5de5\u6240
p1726
aV\u7af9\u5185\u88fd\u4f5c\u6240
p1727
aV\u7af9\u7530\u5370\u5237
p1728
aV\u7027\u4e0a\u5de5\u696d
p1729
aV\u30bf\u30c1\u30a8\u30b9
p1730
aV\u7acb\u5ddd\u30d6\u30e9\u30a4\u30f3\u30c9\u5de5\u696d
p1731
aV\u305f\u3051\u3073\u3057
p1732
aV\u7af9\u672c\u5bb9\u5668
p1733
aV\u30bf\u30c4\u30bf\u96fb\u7dda
p1734
aV\u30bf\u30c4\u30df
p1735
aV\uff34\uff21\uff23
p1736
aV\u30bf\u30c0\u30ce
p1737
aV\u7acb\u82b1\u30a8\u30ec\u30c6\u30c3\u30af
p1738
aV\uff34\uff21\uff33\uff21\uff2b\uff29
p1739
aV\u30bf\u30c4\u30e2
p1740
aV\u591a\u6469\u5ddd\u30db\u30fc\u30eb\u30c7\u30a3\u30f3\u30b0\u30b9
p1741
aV\u30bf\u30de\u30db\u30fc\u30e0
p1742
aV\u7530\u4e2d\u5316\u5b66\u7814\u7a76\u6240
p1743
aV\u7530\u4e2d\u5546\u4e8b
p1744
aV\u7530\u8fba\u4e09\u83f1\u88fd\u85ac
p1745
aV\u30a8\u30b9\u30da\u30c3\u30af
p1746
aV\u7530\u6df5\u96fb\u6a5f
p1747
aV\u30bf\u30ca\u30d9\u7d4c\u55b6
p1748
aV\u7530\u4e2d\u7cbe\u5bc6\u5de5\u696d
p1749
aV\u7530\u8fba\u5de5\u696d
p1750
aV\u7389\u4e95\u5546\u8239
p1751
aV\u7b2c\u4e00\u5316\u6210
p1752
aV\u30bf\u30e0\u30e9\u88fd\u4f5c\u6240
p1753
aV\u30b5\u30af\u30b5\u30db\u30fc\u30eb\u30c7\u30a3\u30f3\u30b0\u30b9
p1754
aV\u7b2c\u4e00\u30ab\u30c3\u30bf\u30fc\u8208\u696d
p1755
aV\u7b2c\u4e00\u7a00\u5143\u7d20\u5316\u5b66\u5de5\u696d
p1756
aV\u30c0\u30a4\u30a4\u30c1
p1757
aV\u30bf\u30e0\u30ed\u30f3
p1758
aV\u7530\u8c37
p1759
aV\u4e39\u9752\u793e
p1760
aV\u7b2c\u4e00\u5b9f\u696d
p1761
aV\u7b2c\u4e00\u7cbe\u5de5
p1762
aV\u7b2c\u4e00\u8208\u5546
p1763
aV\u7b2c\u4e00\u4ea4\u901a\u7523\u696d
p1764
aV\u7b2c\u4e00\u4e2d\u592e\u6c7d\u8239
p1765
aV\u7b2c\u4e00\u5c4b\u88fd\u30d1\u30f3
p1766
aV\u30c7\u30a4\u30fb\u30b7\u30a4
p1767
aV\u7b2c\u4e00\u5546\u54c1
p1768
aV\u7b2c\u4e00\u5efa\u8a2d\u5de5\u696d
p1769
aV\u7b2c\u4e00\u5de5\u696d\u88fd\u85ac
p1770
aV\u7b2c\u4e00\u4e09\u5171
p1771
aV\u7b2c\u4e00\u751f\u547d\u4fdd\u967a
p1772
aV\u30c0\u30a4\u30b1\u30f3
p1773
aV\u5927\u7814\u533b\u5668
p1774
aV\u5927\u7d00\u30a2\u30eb\u30df\u30cb\u30a6\u30e0\u5de5\u696d\u6240
p1775
aV\u30ec\u30c3\u30c9\u30fb\u30d7\u30e9\u30cd\u30c3\u30c8\u30fb\u30b8\u30e3\u30d1\u30f3
p1776
aV\u30c0\u30a4\u30aa\u30fc\u30ba
p1777
aV\u30c0\u30a4\u30ad\u30a2\u30af\u30b7\u30b9
p1778
aV\u5927\u5efa\u5de5\u696d
p1779
aV\u30c0\u30a4\u30ad\u30f3\u5de5\u696d
p1780
aV\u3060\u3044\u3053\u3046\u8a3c\u5238\u30d3\u30b8\u30cd\u30b9
p1781
aV\u5927\u4eac
p1782
aV\u30c0\u30a4\u30ad\u30e7\u30fc\u30cb\u30b7\u30ab\u30ef
p1783
aV\u5927\u904b
p1784
aV\u5927\u8208\u96fb\u5b50\u901a\u4fe1
p1785
aV\u5927\u9ed2\u5929\u7269\u7523
p1786
aV\u5927\u771f\u7a7a
p1787
aV\u30c0\u30a4\u30b8\u30a7\u30c3\u30c8\u5de5\u696d
p1788
aV\u30c0\u30a4\u30b5\u30f3
p1789
aV\u30c0\u30a4\u30b3\u30af\u96fb\u6a5f
p1790
aV\u5927\u5e84
p1791
aV\u30c0\u30a4\u30b7\u30e7\u30fc
p1792
aV\u5927\u4f38\u5316\u5b66
p1793
aV\u7b2c\u4e09\u9280\u884c
p1794
aV\u7b2c\u56db\u9280\u884c
p1795
aV\u30c0\u30a4\u30bd\u30fc
p1796
aV\u30c0\u30a4\u30c0\u30f3
p1797
aV\u5927\u672b\u5efa\u8a2d
p1798
aV\u30c0\u30a4\u30bb\u30ad
p1799
aV\u5927\u6771\u9280\u884c
p1800
aV\u5927\u6771\u5efa\u8a17
p1801
aV\u30c0\u30a4\u30bb\u30eb
p1802
aV\u30c0\u30a4\u30bb\u30ad\u74b0\u5883\u30bd\u30ea\u30e5\u30fc\u30b7\u30e7\u30f3
p1803
aV\u5927\u6c34
p1804
aV\u30c0\u30a4\u30c8
p1805
aV\u30c0\u30a4\u30c8\u30fc\u30b1\u30df\u30c3\u30af\u30b9
p1806
aV\u5927\u6771\u6e2f\u904b
p1807
aV\u5927\u540c\u30e1\u30bf\u30eb\u5de5\u696d
p1808
aV\u30c0\u30a4\u30ca\u30c3\u30af
p1809
aV\u5927\u540c\u5de5\u696d
p1810
aV\u5927\u540c\u4fe1\u53f7
p1811
aV\u30c0\u30a4\u30cb\u30c1\u5de5\u696d
p1812
aV\u5927\u65e5\u7cbe\u5316\u5de5\u696d
p1813
aV\u30c0\u30a4\u30c9\u30fc\u30ea\u30df\u30c6\u30c3\u30c9
p1814
aV\u5927\u6771\u7d21\u7e54
p1815
aV\u30c0\u30a4\u30c9\u30fc\u30c9\u30ea\u30f3\u30b3
p1816
aV\u5927\u90fd\u9b5a\u985e
p1817
aV\u5927\u540c\u7279\u6b8a\u92fc
p1818
aV\u30c0\u30a4\u30c8\u30a8\u30ec\u30af\u30c8\u30ed\u30f3
p1819
aV\u30c0\u30a4\u30cf\u30c4\u5de5\u696d
p1820
aV\u30c0\u30a4\u30cf\u30c4\u30c7\u30a3\u30fc\u30bc\u30eb
p1821
aV\u30c0\u30a4\u30cb\u30c3\u30af
p1822
aV\u5927\u65e5\u5149\u30fb\u30a8\u30f3\u30b8\u30cb\u30a2\u30ea\u30f3\u30b0
p1823
aV\u5927\u65e5\u672c\u5370\u5237
p1824
aV\u5927\u65e5\u672c\u30b3\u30f3\u30b5\u30eb\u30bf\u30f3\u30c8
p1825
aV\uff33\uff23\uff32\uff25\uff25\uff2e\u30db\u30fc\u30eb\u30c7\u30a3\u30f3\u30b0\u30b9
p1826
aV\u5927\u65e5\u672c\u4f4f\u53cb\u88fd\u85ac
p1827
aV\u5927\u65e5\u672c\u5857\u6599
p1828
aV\u5927\u65e5\u672c\u6728\u6750\u9632\u8150
p1829
aV\u30c0\u30a4\u30ca\u30d1\u30c3\u30af
p1830
aV\u30c0\u30a4\u30d3\u30eb
p1831
aV\uff2b\uff24\uff24\uff29
p1832
aV\uff24\uff29\uff23
p1833
aV\u30c0\u30a4\u30d5\u30af
p1834
aV\u30c0\u30a4\u30d8\u30f3
p1835
aV\u30c0\u30a4\u30e4\u30e2\u30f3\u30c9\u96fb\u6a5f
p1836
aV\u4e09\u83f1\uff35\uff26\uff2a\u30ea\u30fc\u30b9
p1837
aV\u30c0\u30a4\u30e6\u30fc\u30a8\u30a4\u30c8
p1838
aV\u5927\u51b7
p1839
aV\u5927\u548c
p1840
aV\u5927\u8c4a\u5efa\u8a2d
p1841
aV\u5927\u4e38\u30a8\u30ca\u30a6\u30a3\u30f3
p1842
aV\u30c0\u30a4\u30e4\u901a\u5546
p1843
aV\u30c0\u30a4\u30e4\u30e2\u30f3\u30c9\u30c0\u30a4\u30cb\u30f3\u30b0
p1844
aV\u5927\u548c\u8a3c\u5238\u30b0\u30eb\u30fc\u30d7\u672c\u793e
p1845
aV\u5927\u548c\u81ea\u52d5\u8eca\u4ea4\u901a
p1846
aV\u308a\u305d\u306a\u30db\u30fc\u30eb\u30c7\u30a3\u30f3\u30b0\u30b9
p1847
aV\u5927\u548c\u30b3\u30f3\u30d4\u30e5\u30fc\u30bf\u30fc
p1848
aV\u5927\u548c\u91cd\u5de5
p1849
aV\u30c0\u30a4\u30d9\u30a2
p1850
aV\u30c0\u30b9\u30ad\u30f3
p1851
aV\uff37\uff24\uff29
p1852
aV\u30c0\u30eb\u30c8\u30f3
p1853
aV\u30bf\u30d3\u30aa
p1854
aV\u30c0\u30f3\u30c8\u30fc\u30db\u30fc\u30eb\u30c7\u30a3\u30f3\u30b0\u30b9
p1855
aV\u5730\u57df\u65b0\u805e\u793e
p1856
aV\u30c0\u30a4\u30ef\u30dc\u30a6\u30db\u30fc\u30eb\u30c7\u30a3\u30f3\u30b0\u30b9
p1857
aV\u30b0\u30ed\u30fc\u30d6\u30e9\u30a4\u30c9
p1858
aV\uff37\uff24\uff22\u30db\u30fc\u30eb\u30c7\u30a3\u30f3\u30b0\u30b9
p1859
aV\u5927\u548c\u30cf\u30a6\u30b9\u5de5\u696d
p1860
aV\u30c0\u30d6\u30eb\u30fb\u30b9\u30b3\u30fc\u30d7
p1861
aV\u5927\u548c\u51b7\u6a5f\u5de5\u696d
p1862
aV\u5343\u8449\u8208\u696d\u9280\u884c
p1863
aV\u30c1\u30e0\u30cb\u30fc
p1864
aV\u30c1\u30e3\u30fc\u30e0\u30fb\u30b1\u30a2\u30fb\u30b3\u30fc\u30dd\u30ec\u30fc\u30b7\u30e7\u30f3
p1865
aV\u4e2d\u592e\u5316\u5b66
p1866
aV\u4e2d\u592e\u53ef\u935b\u5de5\u696d
p1867
aV\u7b51\u90a6\u9280\u884c
p1868
aV\u77e5\u591a\u92fc\u696d
p1869
aV\u4e2d\u8d8a\u30d1\u30eb\u30d7\u5de5\u696d
p1870
aV\u4e2d\u592e\u30a4\u30f3\u30bf\u30fc\u30ca\u30b7\u30e7\u30ca\u30eb\u30b0\u30eb\u30fc\u30d7
p1871
aV\u30c1\u30ce\u30fc
p1872
aV\u30c1\u30bf\u30f3\u5de5\u696d
p1873
aV\u79e9\u7236\u9244\u9053
p1874
aV\u65e5\u672c\u30ea\u30fc\u30c6\u30c3\u30af
p1875
aV\u5343\u8449\u9280\u884c
p1876
aV\u4e2d\u592e\u7d19\u5668\u5de5\u696d
p1877
aV\u4e2d\u592e\u7d4c\u6e08\u793e
p1878
aV\u4e2d\u592e\u81ea\u52d5\u8eca\u5de5\u696d
p1879
aV\u4e2d\u592e\u5009\u5eab
p1880
aV\u4e2d\u592e\u30d3\u30eb\u30c8\u5de5\u696d
p1881
aV\u4e2d\u592e\u88fd\u4f5c\u6240
p1882
aV\u4e2d\u592e\u767a\u689d
p1883
aV\u4e2d\u592e\u9b5a\u985e
p1884
aV\u4e2d\u592e\u7269\u7523
p1885
aV\u4e2d\u56fd\u9280\u884c
p1886
aV\u4e2d\u56fd\u5de5\u696d
p1887
aV\u30c6\u30af\u30cb\u30ab\u30eb\u96fb\u5b50
p1888
aV\u4e2d\u4eac\u533b\u85ac\u54c1
p1889
aV\u4e2d\u5916\u7089\u5de5\u696d
p1890
aV\u4e2d\u5916\u9271\u696d
p1891
aV\u4e2d\u5916\u88fd\u85ac
p1892
aV\u4e2d\u56fd\u96fb\u529b
p1893
aV\u4e2d\u5e83
p1894
aV\u4e2d\u4eac\u9280\u884c
p1895
aV\u99d0\u8eca\u5834\u7d9c\u5408\u7814\u7a76\u6240
p1896
aV\u4e2d\u90e8\u98fc\u6599
p1897
aV\u4e2d\u90e8\u6c34\u7523
p1898
aV\u4e2d\u56fd\u5857\u6599
p1899
aV\u4e2d\u90e8\u8a3c\u5238\u91d1\u878d
p1900
aV\u4e2d\u96fb\u5de5
p1901
aV\u4e2d\u90e8\u74e6\u65af
p1902
aV\u4e2d\u90e8\u92fc\u9211
p1903
aV\u4e2d\u90e8\u96fb\u529b
p1904
aV\u30a2\u30a4\u30c6\u30a3\u30d5\u30a9\u30fc
p1905
aV\u30c4\u30a4\u30f3\u30d0\u30fc\u30c9\u5de5\u696d
p1906
aV\u929a\u5b50\u4e38
p1907
aV\u9577\u5927
p1908
aV\u4e2d\u90e8\u65e5\u672c\u653e\u9001
p1909
aV\u9577\u5e9c\u88fd\u4f5c\u6240
p1910
aV\u5343\u4ee3\u7530\u5316\u5de5\u5efa\u8a2d
p1911
aV\u5343\u4ee3\u7530\u30a4\u30f3\u30c6\u30b0\u30ec
p1912
aV\u8776\u7406
p1913
aV\u30c1\u30e8\u30c0\u30a6\u30fc\u30c6
p1914
aV\u30c1\u30e8\u30c0
p1915
aV\u30c4\u30af\u30a4
p1916
aV\u6d25\u7530\u99d2\u5de5\u696d
p1917
aV\u90fd\u7bc9\u96fb\u6c17
p1918
aV\u30c4\u30ce\u30c0
p1919
aV\u6708\u5cf6\u6a5f\u68b0
p1920
aV\u30c4\u30f4\u30a1\u30a4
p1921
aV\u30c4\u30ab\u30e2\u30c8\u30b3\u30fc\u30dd\u30ec\u30fc\u30b7\u30e7\u30f3
p1922
aV\u30c4\u30ac\u30df
p1923
aV\u571f\u5c4b\u30db\u30fc\u30eb\u30c7\u30a3\u30f3\u30b0\u30b9
p1924
aV\u7bc9\u5730\u9b5a\u5e02\u5834
p1925
aV\u30c4\u30c4\u30df
p1926
aV\u30c6\u30fc\u30aa\u30fc\u30b7\u30fc
p1927
aV\u30c6\u30fc\u30fb\u30aa\u30fc\u30fb\u30c0\u30d6\u30ea\u30e5\u30fc
p1928
aV\u9db4\u898b\u88fd\u4f5c\u6240
p1929
aV\u30c4\u30e0\u30e9
p1930
aV\u693f\u672c\u30c1\u30a8\u30a4\u30f3
p1931
aV\u693f\u672c\u8208\u696d
p1932
aV\u30c6\u30fc\u30aa\u30fc\u5c0f\u7b20\u539f
p1933
aV\u30b8\u30fc\u30d5\u30c3\u30c8
p1934
aV\u9db4\u5f25
p1935
aV\u30c4\u30eb\u30cf\u30db\u30fc\u30eb\u30c7\u30a3\u30f3\u30b0\u30b9
p1936
aV\uff34\uff24\uff2b
p1937
aV\uff34\uff24\uff23\u30bd\u30d5\u30c8\u30a6\u30a7\u30a2\u30a8\u30f3\u30b8\u30cb\u30a2\u30ea\u30f3\u30b0
p1938
aV\u30c6\u30a3\u30fc\u30e9\u30a4\u30d5
p1939
aV\u30c6\u30a3\u30a2
p1940
aV\uff34\uff2f\uff21
p1941
aV\u30c6\u30a3\u30fc\u30fb\u30ef\u30a4\u30fb\u30aa\u30fc
p1942
aV\u30c6\u30a3\u30a2\u30c3\u30af
p1943
aV\uff34\uff06\uff2b\u3000\uff34\uff2f\uff2b\uff21
p1944
aV\uff34\uff06\uff23\u30db\u30fc\u30eb\u30c7\u30a3\u30f3\u30b0\u30b9
p1945
aV\uff34\uff33\uff29\u30db\u30fc\u30eb\u30c7\u30a3\u30f3\u30b0\u30b9
p1946
aV\uff34\uff33\uff2f\uff2e
p1947
aV\uff34\uff06\uff24\u30db\u30fc\u30eb\u30c7\u30a3\u30f3\u30b0\u30b9
p1948
aV\uff34\uff28\uff2b
p1949
aV\u5e1d\u56fd\u96fb\u6a5f\u88fd\u4f5c\u6240
p1950
aV\u30c6\u30a4\u30ab
p1951
aV\u5e1d\u56fd\u7e4a\u7dad
p1952
aV\u30c6\u30a4\u30fb\u30a8\u30b9\u3000\u30c6\u30c3\u30af
p1953
aV\u5e1d\u56fd\u901a\u4fe1\u5de5\u696d
p1954
aV\u30c6\u30a4\u30af\u30a2\u30f3\u30c9\u30ae\u30f4\u30fb\u30cb\u30fc\u30ba
p1955
aV\uff34\uff2b\uff23
p1956
aV\u3042\u3059\u304b\u88fd\u85ac
p1957
aV\u5e1d\u4eba
p1958
aV\u5e1d\u56fd\u30db\u30c6\u30eb
p1959
aV\u30c6\u30af\u30ce\u83f1\u548c
p1960
aV\u30c6\u30af\u30ce\u30af\u30aa\u30fc\u30c4
p1961
aV\uff34\uff30\uff32
p1962
aV\u30c6\u30a4\u30f3
p1963
aV\u30c6\u30a4\u30c4\u30fc
p1964
aV\u30c6\u30af\u30ce\u30fb\u30bb\u30d6\u30f3
p1965
aV\u30c6\u30a3\u30e0\u30b3
p1966
aV\u30c6\u30af\u30ce\u30db\u30e9\u30a4\u30be\u30f3\u30fb\u30db\u30fc\u30eb\u30c7\u30a3\u30f3\u30b0\u30b9
p1967
aV\u30c6\u30af\u30ce\u30b9\u30b8\u30e3\u30d1\u30f3
p1968
aV\u30c6\u30af\u30ce\u30d7\u30ed\u30fb\u30db\u30fc\u30eb\u30c7\u30a3\u30f3\u30b0\u30b9
p1969
aV\u30c6\u30af\u30de\u30c8\u30ea\u30c3\u30af\u30b9
p1970
aV\u30c6\u30af\u30ce\u30e1\u30c7\u30a3\u30ab
p1971
aV\u30c6\u30af\u30ce\u30a2\u30eb\u30d5\u30a1
p1972
aV\u30c6\u30c3\u30af\u30d5\u30a1\u30fc\u30e0
p1973
aV\u30c6\u30b9\u30af
p1974
aV\u30c6\u30af\u30ce\u30de\u30bb\u30de\u30c6\u30a3\u30ab\u30eb
p1975
aV\u9244\u5efa\u5efa\u8a2d
p1976
aV\u30c6\u30bb\u30c3\u30af
p1977
aV\u30c6\u30ce\u30c3\u30af\u30b9
p1978
aV\u30c6\u30e9
p1979
aV\u30c6\u30ec\u30d3\u6771\u4eac\u30db\u30fc\u30eb\u30c7\u30a3\u30f3\u30b0\u30b9
p1980
aV\u30b5\u30a4\u30aa\u30b9\u30c6\u30af\u30ce\u30ed\u30b8\u30fc
p1981
aV\u5bfa\u5d0e\u96fb\u6c17\u7523\u696d
p1982
aV\u30c6\u30e9\u30b9\u30ab\u30a4
p1983
aV\u30c6\u30eb\u30e2
p1984
aV\u9244\u4eba\u5316\u8a08\u753b
p1985
aV\u30c6\u30ea\u30ed\u30b8\u30fc
p1986
aV\u30c6\u30e9\u30d7\u30ed\u30fc\u30d6
p1987
aV\u5bfa\u5ca1\u88fd\u4f5c\u6240
p1988
aV\u30a2\u30a4\u30d5\u30e9\u30c3\u30b0
p1989
aV\u5929\u9f8d\u88fd\u92f8
p1990
aV\u30c7\u30fc\u30bf\u30fb\u30a2\u30d7\u30ea\u30b1\u30fc\u30b7\u30e7\u30f3
p1991
aV\u30c7\u30fc\u30bf\u30bb\u30af\u30b7\u30e7\u30f3
p1992
aV\u30c6\u30f3\u30d7\u30db\u30fc\u30eb\u30c7\u30a3\u30f3\u30b0\u30b9
p1993
aV\u30c6\u30f3\u30dd\u30b9\u30d0\u30b9\u30bf\u30fc\u30ba
p1994
aV\uff24\uff34\uff33
p1995
aV\u5929\u99ac
p1996
aV\u30d5\u30e5\u30fc\u30b8\u30e7\u30f3\u30d1\u30fc\u30c8\u30ca\u30fc
p1997
aV\u5929\u6e80\u5c4b\u30b9\u30c8\u30a2
p1998
aV\u5929\u6607\u96fb\u6c17\u5de5\u696d
p1999
aV\u30c6\u30f3\u30a2\u30e9\u30a4\u30c9
p2000
aV\u30c7\u30a3\u30b9\u30b3
p2001
aV\u30c7\u30a3\u30fc\u30fb\u30a8\u30cc\u30fb\u30a8\u30fc
p2002
aV\uff24\uff23\uff2d\u30db\u30fc\u30eb\u30c7\u30a3\u30f3\u30b0\u30b9
p2003
aV\u30a2\u30d0\u30f3\u30c8
p2004
aV\u30c7\u30a3\u30fc\u30fb\u30c7\u30a3\u30fc\u30fb\u30a8\u30b9
p2005
aV\u30c7\u30a3\u30c3\u30d7
p2006
aV\u30c7\u30a3\u30fc\u30d6\u30a4\u30a8\u30c3\u30af\u30b9
p2007
aV\u30c7\u30a3\u30fc\u30a8\u30e0\u30a8\u30b9
p2008
aV\u30c7\u30fc\u30bf\u30ea\u30f3\u30af\u30b9
p2009
aV\u30c7\u30a3\u30a2\u30fb\u30e9\u30a4\u30d5
p2010
aV\u30c7\u30a4\u30c8\u30ca
p2011
aV\uff24\uff2e\uff21\u30c1\u30c3\u30d7\u7814\u7a76\u6240
p2012
aV\u30c7\u30b8\u30bf\u30eb\u30a2\u30fc\u30c4
p2013
aV\u30c7\u30b8\u30bf\u30eb\u30fb\u30a2\u30c9\u30d0\u30bf\u30a4\u30b8\u30f3\u30b0\u30fb\u30b3\u30f3\u30bd\u30fc\u30b7\u30a2\u30e0
p2014
aV\u30c7\u30fc\u30bf\u30db\u30e9\u30a4\u30be\u30f3
p2015
aV\u30c7\u30fb\u30a6\u30a8\u30b9\u30bf\u30f3\u30fb\u30bb\u30e9\u30d4\u30c6\u30af\u30b9\u7814\u7a76\u6240
p2016
aV\u30c7\u30ea\u30ab\u30d5\u30fc\u30ba
p2017
aV\u30c7\u30a3\u30b8\u30bf\u30eb\u30e1\u30c7\u30a3\u30a2\u30d7\u30ed\u30d5\u30a7\u30c3\u30b7\u30e7\u30ca\u30eb
p2018
aV\u30c7\u30a3\u30fc\u30fb\u30a8\u30eb\u30fb\u30a4\u30fc
p2019
aV\u30c7\u30b5\u30f3\u30c8
p2020
aV\u30c7\u30b6\u30a4\u30f3\u30ef\u30f3\u30fb\u30b8\u30e3\u30d1\u30f3
p2021
aV\u30c7\u30b8\u30bf\u30eb\u30a2\u30c9\u30d9\u30f3\u30c1\u30e3\u30fc
p2022
aV\uff29\uff34\uff42\uff4f\uff4f\uff4b
p2023
aV\u30c7\u30b8\u30bf\u30eb\u30ac\u30ec\u30fc\u30b8
p2024
aV\u30c7\u30b8\u30bf\u30eb\u30c7\u30b6\u30a4\u30f3
p2025
aV\u96fb\u6c17\u5316\u5b66\u5de5\u696d
p2026
aV\u96fb\u6c17\u8208\u696d
p2027
aV\u96fb\u7b97\u30b7\u30b9\u30c6\u30e0
p2028
aV\u96fb\u97ff\u793e
p2029
aV\u96fb\u901a
p2030
aV\u96fb\u6e90\u958b\u767a
p2031
aV\u96fb\u696d\u793e\u6a5f\u68b0\u88fd\u4f5c\u6240
p2032
aV\u96fb\u7b97
p2033
aV\u30c7\u30f3\u30bd\u30fc
p2034
aV\u30c7\u30f3\u30e8\u30fc
p2035
aV\u30c8\u30fc\u30a2\u7d21\u30b3\u30fc\u30dd\u30ec\u30fc\u30b7\u30e7\u30f3
p2036
aV\u30c8\u30fc\u30ab\u30a4
p2037
aV\uff34\uff2f\uff2b\uff21\uff29\u30db\u30fc\u30eb\u30c7\u30a3\u30f3\u30b0\u30b9
p2038
aV\u30c8\u30fc\u30ab\u30ed
p2039
aV\u96fb\u901a\u56fd\u969b\u60c5\u5831\u30b5\u30fc\u30d3\u30b9
p2040
aV\u30c8\u30fc\u30a8\u30eb
p2041
aV\u30c8\u30fc\u30a2\u30df
p2042
aV\u30c8\u30fc\u30a4\u30f3
p2043
aV\u30c8\u30fc\u30a8\u30cd\u30c3\u30af
p2044
aV\u30c8\u30fc\u30ab\u30f3
p2045
aV\u30c8\u30fc\u30b7\u30f3
p2046
aV\u30c8\u30fc\u30bb
p2047
aV\u30c8\u30fc\u30e2\u30af
p2048
aV\u30c8\u30fc\u30e8\u30fc\u30a2\u30b5\u30ce
p2049
aV\u30c8\u30fc\u30e8\u30fc\u30ab\u30cd\u30c4
p2050
aV\u30c8\u30fc\u30e1\u30f3\u30c7\u30d0\u30a4\u30b9
p2051
aV\u30c8\u30fc\u30bd\u30fc
p2052
aV\u30c8\u30fc\u30db\u30fc
p2053
aV\uff34\uff2f\uff37\uff21
p2054
aV\u6771\u4e9c\u5efa\u8a2d\u5de5\u696d
p2055
aV\u6771\u4e9e\u5408\u6210
p2056
aV\u6771\u6620\u30a2\u30cb\u30e1\u30fc\u30b7\u30e7\u30f3
p2057
aV\u6771\u6804\u30ea\u30fc\u30d5\u30a1\u30fc\u30e9\u30a4\u30f3
p2058
aV\u30a2\u30b4\u30fc\u30e9\u30fb\u30db\u30b9\u30d4\u30bf\u30ea\u30c6\u30a3\u30fc\u30fb\u30b0\u30eb\u30fc\u30d7
p2059
aV\u6771\u6d77\u6c7d\u8239
p2060
aV\u6771\u6620
p2061
aV\u6771\u4e9c\u30d0\u30eb\u30d6\u30a8\u30f3\u30b8\u30cb\u30a2\u30ea\u30f3\u30b0
p2062
aV\u6771\u4e9c\u9053\u8def\u5de5\u696d
p2063
aV\u6771\u6d77\u30ab\u30fc\u30dc\u30f3
p2064
aV\u6771\u4e9c\u30c7\u30a3\u30fc\u30b1\u30fc\u30b1\u30fc
p2065
aV\u6771\u4e9c\u77f3\u6cb9
p2066
aV\uff12\uff11\uff2c\uff21\uff24\uff39
p2067
aV\u6771\u6025\u5efa\u8a2d
p2068
aV\u6771\u6025\u4e0d\u52d5\u7523\u30db\u30fc\u30eb\u30c7\u30a3\u30f3\u30b0\u30b9
p2069
aV\u6771\u6025\u30ec\u30af\u30ea\u30a8\u30fc\u30b7\u30e7\u30f3
p2070
aV\u6771\u6d77\u67d3\u5de5
p2071
aV\u6771\u6d77\u30a8\u30ec\u30af\u30c8\u30ed\u30cb\u30af\u30b9
p2072
aV\u6771\u6d77\u7406\u5316\u96fb\u6a5f\u88fd\u4f5c\u6240
p2073
aV\u6771\u6d77\u30ea\u30fc\u30b9
p2074
aV\u6771\u4eac\u4e00\u756a\u30d5\u30fc\u30ba
p2075
aV\u6771\u4eac\u30a4\u30f3\u30ad
p2076
aV\u4f4f\u53cb\u7406\u5de5
p2077
aV\u6771\u6d77\u65c5\u5ba2\u9244\u9053
p2078
aV\u6771\u4eac\u30a8\u30ec\u30af\u30c8\u30ed\u30f3
p2079
aV\u6771\u4eac\u6c7d\u8239
p2080
aV\u6771\u4eac\u8cb4\u5b9d
p2081
aV\u6771\u4eac\u30a8\u30ec\u30af\u30c8\u30ed\u30f3\u3000\u30c7\u30d0\u30a4\u30b9
p2082
aV\u6771\u4eac\u74e6\u65af
p2083
aV\u6771\u4eac\u5fdc\u5316\u5de5\u696d
p2084
aV\u6771\u4eac\u6025\u884c\u96fb\u9244
p2085
aV\u6771\u4eac\u92fc\u9435
p2086
aV\u6771\u4eac\u6a5f\u68b0\u88fd\u4f5c\u6240
p2087
aV\u6771\u4eac\u8861\u6a5f
p2088
aV\u6771\u4eac\u6703\u8218
p2089
aV\u6771\u6d77\u6771\u4eac\u30d5\u30a3\u30ca\u30f3\u30b7\u30e3\u30eb\u30fb\u30db\u30fc\u30eb\u30c7\u30a3\u30f3\u30b0\u30b9
p2090
aV\u6771\u4eac\u81ea\u50cd\u6a5f\u68b0\u88fd\u4f5c\u6240
p2091
aV\u6771\u4eac\u88fd\u9435
p2092
aV\u6771\u4eac\u7cbe\u5bc6
p2093
aV\u6771\u4eac\u30bd\u30ef\u30fc\u30eb
p2094
aV\u6771\u4eac\u5efa\u7269
p2095
aV\u6771\u4eac\u7523\u696d
p2096
aV\u6771\u4eac\u500b\u5225\u6307\u5c0e\u5b66\u9662
p2097
aV\u6771\u4eac\u5efa\u7269\u4e0d\u52d5\u7523\u8ca9\u58f2
p2098
aV\u30d5\u30a1\u30a4\u30f3\u30b7\u30f3\u30bf\u30fc
p2099
aV\u6771\u4eac\u30b3\u30b9\u30e2\u30b9\u96fb\u6a5f
p2100
aV\u6771\u4eac\u88fd\u7db1
p2101
aV\u6771\u4eac\u7279\u6b8a\u96fb\u7dda
p2102
aV\u6771\u4eac\u90fd\u7af6\u99ac
p2103
aV\u6771\u4eac\u30c6\u30a2\u30c8\u30eb
p2104
aV\u6771\u4eac\uff34\uff39\u30d5\u30a3\u30ca\u30f3\u30b7\u30e3\u30eb\u30b0\u30eb\u30fc\u30d7
p2105
aV\u6771\u4eac\u9435\u92fc
p2106
aV\u6771\u4eac\u30a8\u30cd\u30b7\u30b9
p2107
aV\u6771\u4eac\u96fb\u529b
p2108
aV\u30b5\u30c3\u30af\u30b9\u30d0\u30fc\u3000\u30db\u30fc\u30eb\u30c7\u30a3\u30f3\u30b0\u30b9
p2109
aV\uff34\uff22\uff2b
p2110
aV\u6771\u4eac\u65e5\u7523\u30b3\u30f3\u30d4\u30e5\u30fc\u30bf\u30b7\u30b9\u30c6\u30e0
p2111
aV\u65e5\u7523\u6771\u4eac\u8ca9\u58f2\u30db\u30fc\u30eb\u30c7\u30a3\u30f3\u30b0\u30b9
p2112
aV\u5c71\u7530\u30b3\u30f3\u30b5\u30eb\u30c6\u30a3\u30f3\u30b0\u30b0\u30eb\u30fc\u30d7
p2113
aV\u6771\u4eac\u30c9\u30fc\u30e0
p2114
aV\u6771\u5149
p2115
aV\u6771\u5149\u9ad8\u5cb3
p2116
aV\u6771\u829d
p2117
aV\u6771\u4eac\u7aaf\u696d
p2118
aV\u6771\u4eac\u697d\u5929\u5730
p2119
aV\u6771\u4eac\u653e\u9001\u30db\u30fc\u30eb\u30c7\u30a3\u30f3\u30b0\u30b9
p2120
aV\u6771\u8a08\u96fb\u7b97
p2121
aV\u6771\u829d\u6a5f\u68b0
p2122
aV\u6771\u829d\u30c6\u30c3\u30af
p2123
aV\u6771\u4eac\u30e9\u30c2\u30a8\u30fc\u30bf\u30fc\u88fd\u9020
p2124
aV\u6771\u5efa\u30b3\u30fc\u30dd\u30ec\u30fc\u30b7\u30e7\u30f3
p2125
aV\u6771\u4eac\u30dc\u30fc\u30c9\u5de5\u696d
p2126
aV\uff34\uff2f\uff34\uff2f
p2127
aV\u6771\u90fd\u6c34\u7523
p2128
aV\u6771\u798f\u88fd\u7c89
p2129
aV\u6771\u6b66\u4f4f\u8ca9
p2130
aV\u6771\u7965
p2131
aV\u6771\u30bd\u30fc
p2132
aV\u6771\u9244\u5de5\u696d
p2133
aV\u6771\u30c6\u30af
p2134
aV\u6771\u829d\u30d7\u30e9\u30f3\u30c8\u30b7\u30b9\u30c6\u30e0
p2135
aV\u30c8\u30fc\u30bb\u30a4
p2136
aV\u6771\u5929\u7d05
p2137
aV\u6771\u90a6\u30a2\u30bb\u30c1\u30ec\u30f3
p2138
aV\u6771\u90e8\u30cd\u30c3\u30c8\u30ef\u30fc\u30af
p2139
aV\u6771\u30d7\u30ec
p2140
aV\u6771\u90a6\u74e6\u65af
p2141
aV\u6771\u6b66\u30b9\u30c8\u30a2
p2142
aV\u6771\u90a6\u5316\u5b66\u5de5\u696d
p2143
aV\u6771\u90a6\u4e9c\u925b
p2144
aV\u6771\u5b9d
p2145
aV\u6771\u6b66\u9244\u9053
p2146
aV\u6771\u5317\u65b0\u793e
p2147
aV\u6771\u90a6\u30db\u30fc\u30eb\u30c7\u30a3\u30f3\u30b0\u30b9
p2148
aV\u6771\u90a6\u30c1\u30bf\u30cb\u30a6\u30e0
p2149
aV\u6771\u90a6\u30b7\u30b9\u30c6\u30e0\u30b5\u30a4\u30a8\u30f3\u30b9
p2150
aV\u6771\u90a6\u91d1\u5c5e
p2151
aV\u6771\u5317\u5316\u5b66\u85ac\u54c1
p2152
aV\u6771\u90a6\u30ec\u30de\u30c3\u30af
p2153
aV\u6771\u5317\u9280\u884c
p2154
aV\u6771\u90a6\u9280\u884c
p2155
aV\u6771\u6d0b\u30a4\u30f3\u30ad\uff33\uff23\u30db\u30fc\u30eb\u30c7\u30a3\u30f3\u30b0\u30b9
p2156
aV\u6771\u5317\u7279\u6b8a\u92fc
p2157
aV\u6771\u6d0b\u92fc\u9211
p2158
aV\u6771\u6d0b\u6a5f\u68b0\u91d1\u5c5e
p2159
aV\u6771\u6d0b\u30a8\u30f3\u30b8\u30cb\u30a2\u30ea\u30f3\u30b0
p2160
aV\uff34\uff34\uff2b
p2161
aV\u6771\u6d0b\u5efa\u8a2d
p2162
aV\u6771\u6d0b\u5408\u6210\u5de5\u696d
p2163
aV\u6771\u5317\u96fb\u529b
p2164
aV\u6771\u967d\u30c6\u30af\u30cb\u30ab
p2165
aV\u6771\u6d0b\u30c6\u30c3\u30af
p2166
aV\u6771\u967d\u5009\u5eab
p2167
aV\u6771\u6d0b\u70ad\u7d20
p2168
aV\u6771\u6d0b\u88fd\u7f50\u30b0\u30eb\u30fc\u30d7\u30db\u30fc\u30eb\u30c7\u30a3\u30f3\u30b0\u30b9
p2169
aV\u6771\u6d0b\u30b4\u30e0\u5de5\u696d
p2170
aV\u6771\u6d0b\u96fb\u6a5f
p2171
aV\u6771\u6d0b\u6c34\u7523
p2172
aV\u6771\u6d0b\u7cbe\u7cd6
p2173
aV\u6771\u6d0b\u30b7\u30e4\u30c3\u30bf\u30fc
p2174
aV\u6771\u6d0b\u8a3c\u5238
p2175
aV\u30c6\u30a3\u30e9\u30c9
p2176
aV\u6771\u30ea
p2177
aV\u6771\u6d0b\u96fb\u6a5f\u88fd\u9020
p2178
aV\u6771\u6d0b\u30c9\u30e9\u30a4\u30eb\u30fc\u30d6
p2179
aV\u6771\u6d0b\u30d3\u30b8\u30cd\u30b9\u30a8\u30f3\u30b8\u30cb\u30a2\u30ea\u30f3\u30b0
p2180
aV\u30c6\u30af\u30ce\u30a2\u30bd\u30b7\u30a8
p2181
aV\u6771\u7406\u30db\u30fc\u30eb\u30c7\u30a3\u30f3\u30b0\u30b9
p2182
aV\u6771\u6d0b\u7d21
p2183
aV\u6771\u30ec
p2184
aV\u6771\u6d0b\u57e0\u982d
p2185
aV\u6771\u6d0b\u5203\u7269
p2186
aV\u7279\u6b8a\u96fb\u6975
p2187
aV\u7279\u7a2e\u6771\u6d77\u88fd\u7d19
p2188
aV\uff34\uff22\u30b0\u30eb\u30fc\u30d7
p2189
aV\u6771\u548c\u85ac\u54c1
p2190
aV\u56f3\u66f8\u5370\u5237
p2191
aV\u30c8\u30b7\u30f3\u30fb\u30b0\u30eb\u30fc\u30d7
p2192
aV\u6771\u548c\u30d5\u30fc\u30c9\u30b5\u30fc\u30d3\u30b9
p2193
aV\u6238\u4e0a\u96fb\u6a5f\u88fd\u4f5c\u6240
p2194
aV\u30c8\u30af\u30e4\u30de
p2195
aV\u6771\u4eac\u8a08\u5668
p2196
aV\u5fb3\u5009\u5efa\u8a2d
p2197
aV\u6771\u548c\u9280\u884c
p2198
aV\uff2c\uff29\uff38\uff29\uff2c\u30b0\u30eb\u30fc\u30d7
p2199
aV\u30c8\u30b9\u30cd\u30c3\u30c8
p2200
aV\u51f8\u7248\u5370\u5237
p2201
aV\u30c8\u30c3\u30d1\u30f3\u30fb\u30d5\u30a9\u30fc\u30e0\u30ba
p2202
aV\u6238\u7530\u5de5\u696d
p2203
aV\u30b3\u30e2\u30f3\u30a6\u30a7\u30eb\u30b9\u30fb\u30a8\u30f3\u30bf\u30fc\u30c6\u30a4\u30f3\u30e1\u30f3\u30c8
p2204
aV\u30c8\u30c3\u30d7\u30ab\u30eb\u30c1\u30e3\u30fc
p2205
aV\u6238\u7530\u5efa\u8a2d
p2206
aV\u9ce5\u53d6\u9280\u884c
p2207
aV\u6803\u6728\u9280\u884c
p2208
aV\u30bf\u30ab\u30e9\u30c8\u30df\u30fc
p2209
aV\u30c8\u30df\u30bf
p2210
aV\u30c8\u30d4\u30fc\u5de5\u696d
p2211
aV\u9ce5\u7fbd\u6d0b\u884c
p2212
aV\u5df4\u5ddd\u88fd\u7d19\u6240
p2213
aV\u30c8\u30ca\u30df\u30db\u30fc\u30eb\u30c7\u30a3\u30f3\u30b0\u30b9
p2214
aV\u30c8\u30d7\u30b3\u30f3
p2215
aV\u30c8\u30df\u30bf\u96fb\u6a5f
p2216
aV\u98db\u5cf6\u5efa\u8a2d
p2217
aV\u30c8\u30de\u30c8\u9280\u884c
p2218
aV\u8c4a\u7530\u5408\u6210
p2219
aV\u8c4a\u7530\u81ea\u52d5\u7e54\u6a5f
p2220
aV\u30c8\u30e8\u30bf\u7d21\u7e54
p2221
aV\u30c8\u30e9\u30a4\u30b9\u30c6\u30fc\u30b8
p2222
aV\u5df4\u5de5\u696d
p2223
aV\u30c8\u30e2\u30cb\u30db\u30fc\u30eb\u30c7\u30a3\u30f3\u30b0\u30b9
p2224
aV\u5bcc\u5c71\u9280\u884c
p2225
aV\u30c8\u30e8\u30bf\u81ea\u52d5\u8eca
p2226
aV\u8c4a\u7530\u901a\u5546
p2227
aV\u30c8\u30e9\u30b9\u30c8
p2228
aV\u30c8\u30e9\u30b9\u30b3\u4e2d\u5c71
p2229
aV\uff34\uff32\uff35\uff23\uff2b\uff0d\uff2f\uff2e\uff25
p2230
aV\u5df4\u30b3\u30fc\u30dd\u30ec\u30fc\u30b7\u30e7\u30f3
p2231
aV\u9ce5\u5c45\u85ac\u54c1
p2232
aV\u9ce5\u8cb4\u65cf
p2233
aV\u30c8\u30ea\u30b1\u30df\u30ab\u30eb\u7814\u7a76\u6240
p2234
aV\u30c8\u30e9\u30f3\u30b3\u30e0
p2235
aV\u30c8\u30e9\u30f3\u30b6\u30af\u30b7\u30e7\u30f3
p2236
aV\u9149\u5cf6\u88fd\u4f5c\u6240
p2237
aV\u30c8\u30ea\u30c9\u30fc\u30eb
p2238
aV\u30c8\u30ea\u30cb\u30c6\u30a3\u5de5\u696d
p2239
aV\u30c8\u30ec\u30fc\u30c7\u30a3\u30a2
p2240
aV\u30c8\u30e9\u30b9\u30c8\u30fb\u30c6\u30c3\u30af
p2241
aV\u30c8\u30e9\u30b9\u30c8\u30db\u30fc\u30eb\u30c7\u30a3\u30f3\u30b0\u30b9
p2242
aV\u9ce5\u8d8a\u88fd\u7c89
p2243
aV\u30c8\u30e9\u30f3\u30b9\u30fb\u30b3\u30b9\u30e2\u30b9
p2244
aV\u30c8\u30e9\u30f3\u30b9\u30b8\u30a7\u30cb\u30c3\u30af
p2245
aV\u30c8\u30ec\u30a4\u30c0\u30fc\u30ba\u30db\u30fc\u30eb\u30c7\u30a3\u30f3\u30b0\u30b9
p2246
aV\u30c8\u30ec\u30b8\u30e3\u30fc\u30fb\u30d5\u30a1\u30af\u30c8\u30ea\u30fc
p2247
aV\u30c8\u30ec\u30c3\u30af\u30b9\u30fb\u30bb\u30df\u30b3\u30f3\u30c0\u30af\u30bf\u30fc
p2248
aV\u30c8\u30ec\u30f3\u30c0\u30fc\u30ba
p2249
aV\u30c8\u30ec\u30f3\u30c9\u30de\u30a4\u30af\u30ed
p2250
aV\u30c9\u30fc\u30f3
p2251
aV\u30c9\u30ea\u30fc\u30e0\u30a4\u30f3\u30ad\u30e5\u30d9\u30fc\u30bf
p2252
aV\u30c9\u30c8\u30fc\u30eb\u30fb\u65e5\u30ec\u30b9\u30db\u30fc\u30eb\u30c7\u30a3\u30f3\u30b0\u30b9
p2253
aV\uff24\uff2f\uff37\uff21\u30db\u30fc\u30eb\u30c7\u30a3\u30f3\u30b0\u30b9
p2254
aV\u30c8\u30e9\u30a4\u30a2\u30a4\u30ba
p2255
aV\u30c9\u30a6\u30b7\u30b7\u30e3
p2256
aV\u30c9\u30af\u30bf\u30fc\u30b7\u30fc\u30e9\u30dc
p2257
aV\u30c9\u30df\u30fc
p2258
aV\u30a6\u30a7\u30eb\u30b9\u30fb\u30de\u30cd\u30b8\u30e1\u30f3\u30c8
p2259
aV\u30c9\u30ea\u30b3\u30e0
p2260
aV\u30c9\u30f3\u30ad\u30db\u30fc\u30c6\u30db\u30fc\u30eb\u30c7\u30a3\u30f3\u30b0\u30b9
p2261
aV\u5185\u6d77\u9020\u8239
p2262
aV\u5185\u5916\u30c8\u30e9\u30f3\u30b9\u30e9\u30a4\u30f3
p2263
aV\u3059\u3066\u304d\u30ca\u30a4\u30b9\u30b0\u30eb\u30fc\u30d7
p2264
aV\u30ca\u30ab\u30cb\u30b7
p2265
aV\u5185\u5916\u30c6\u30c3\u30af
p2266
aV\u30ca\u30a4\u30ac\u30a4
p2267
aV\u4e2d\u5317\u88fd\u4f5c\u6240
p2268
aV\uff2e\uff41\uff29\uff34\uff2f
p2269
aV\u4e2d\u5c71\u88fd\u92fc\u6240
p2270
aV\u4e2d\u5c71\u798f
p2271
aV\u4e2d\u65e5\u672c\u8208\u696d
p2272
aV\u4e2d\u65e5\u672c\u92f3\u5de5
p2273
aV\u30ca\u30ab\u30dc\u30fc\u30c6\u30c3\u30af
p2274
aV\u4e2d\u6751\u5c4b
p2275
aV\u30ca\u30ab\u30d0\u30e4\u30b7
p2276
aV\u4e2d\u897f\u88fd\u4f5c\u6240
p2277
aV\u4e2d\u9053\u30ea\u30fc\u30b9
p2278
aV\u4e2d\u91ce\u51b7\u6a5f
p2279
aV\u30ca\u30ab\u30ce\u30d5\u30c9\u30fc\u5efa\u8a2d
p2280
aV\u6c38\u8c37\u5712
p2281
aV\u9577\u91ce\u8a08\u5668
p2282
aV\u30ca\u30ac\u30bb
p2283
aV\u9577\u702c\u7523\u696d
p2284
aV\u30ca\u30ab\u30e8
p2285
aV\u9577\u91ce\u65e5\u672c\u7121\u7dda
p2286
aV\u306a\u304c\u306e\u6771\u6025\u767e\u8ca8\u5e97
p2287
aV\u30ca\u30ac\u30a4\u30ec\u30fc\u30d9\u30f3
p2288
aV\u9577\u91ce\u9280\u884c
p2289
aV\u30ca\u30c3\u30af
p2290
aV\u540d\u53e4\u5c4b\u6728\u6750
p2291
aV\u30ca\u30ac\u30db\u30ea
p2292
aV\u540d\u53e4\u5c4b\u96fb\u6a5f\u5de5\u696d
p2293
aV\u30d1\u30ca\u30db\u30fc\u30e0
p2294
aV\u90a3\u9808\u96fb\u6a5f\u9244\u5de5
p2295
aV\u30ca\u30ac\u30ef
p2296
aV\u540d\u53e4\u5c4b\u9244\u9053
p2297
aV\u540d\u53e4\u5c4b\u9280\u884c
p2298
aV\uff25\uff29\uff3a\uff2f
p2299
aV\u30ca\u30fb\u30c7\u30c3\u30af\u30b9
p2300
aV\u30ca\u30d6\u30c6\u30b9\u30b3
p2301
aV\u30ca\u30d5\u30b3
p2302
aV\u540d\u6751\u9020\u8239\u6240
p2303
aV\u306a\u3068\u308a
p2304
aV\u30ca\u30ce\u30ad\u30e3\u30ea\u30a2
p2305
aV\u30ca\u30c8\u30b3
p2306
aV\u30ca\u30d3\u30bf\u30b9
p2307
aV\u30ca\u30f3\u30b7\u30f3
p2308
aV\u5357\u7dcf\u901a\u904b
p2309
aV\u5357\u90fd\u9280\u884c
p2310
aV\u30a2\u30b8\u30a2\u30b2\u30fc\u30c8\u30db\u30fc\u30eb\u30c7\u30a3\u30f3\u30b0\u30b9
p2311
aV\u65b0\u6f5f\u653e\u9001
p2312
aV\u30ca\u30e9\u30b5\u30ad\u7523\u696d
p2313
aV\u5357\u967d
p2314
aV\u5357\u6d77\u30d7\u30e9\u30a4\u30a6\u30c3\u30c9
p2315
aV\u65b0\u6f5f\u4ea4\u901a
p2316
aV\u5357\u6d77\u8fb0\u6751\u5efa\u8a2d
p2317
aV\u5357\u6d77\u96fb\u6c17\u9244\u9053
p2318
aV\u897f\u5ddd\u30b4\u30e0\u5de5\u696d
p2319
aV\u897f\u829d\u96fb\u6a5f
p2320
aV\u897f\u65e5\u672c\u30b7\u30c6\u30a3\u9280\u884c
p2321
aV\uff33\uff39\uff33\uff2b\uff25\uff2e
p2322
aV\u897f\u65e5\u672c\u65c5\u5ba2\u9244\u9053
p2323
aV\u897f\u5c3e\u30ec\u30f3\u30c8\u30aa\u30fc\u30eb
p2324
aV\u30cb\u30b3\u30f3
p2325
aV\u897f\u5ddd\u8a08\u6e2c
p2326
aV\u897f\u677e\u5efa\u8a2d
p2327
aV\u897f\u65e5\u672c\u9244\u9053
p2328
aV\u30cb\u30a4\u30bf\u30ab
p2329
aV\u30cb\u30c1\u30cf
p2330
aV\u30cb\u30c1\u30a4\u5b66\u9928
p2331
aV\u65e5\u4e9c\u92fc\u696d
p2332
aV\u30cb\u30c1\u30a2\u30b9
p2333
aV\u65e5\u4f1d
p2334
aV\u65e5\u4f4f\u30b5\u30fc\u30d3\u30b9
p2335
aV\u30cb\u30c1\u30b3\u30f3
p2336
aV\u30cb\u30c1\u30c0\u30a4
p2337
aV\u897f\u677e\u5c4b\u30c1\u30a7\u30fc\u30f3
p2338
aV\u30cb\u30c1\u30ec\u30ad
p2339
aV\u65e5\u548c\u7523\u696d
p2340
aV\u30cb\u30c1\u30d0\u30f3
p2341
aV\u53cc\u65e5
p2342
aV\u30cb\u30c1\u30ea\u30e7\u30af
p2343
aV\u30cb\u30c3\u30ab\u30c8\u30fc
p2344
aV\u30cb\u30c1\u30ec\u30a4
p2345
aV\u30cb\u30c1\u30ea\u30f3
p2346
aV\u65e5\u7ce7\u88fd\u30d1\u30f3
p2347
aV\u30cb\u30c1\u30e2\u30a6
p2348
aV\u65e5\u83ef\u5316\u5b66
p2349
aV\u65e5\u6a5f\u88c5
p2350
aV\u30cb\u30c3\u30af\u30b9
p2351
aV\u30cb\u30c3\u30b3\u30a6\u30c8\u30e9\u30d9\u30eb
p2352
aV\u65e5\u7523\u5316\u5b66\u5de5\u696d
p2353
aV\u65e5\u7523\u81ea\u52d5\u8eca
p2354
aV\u30cb\u30d7\u30ed
p2355
aV\u65e5\u63ee
p2356
aV\u65e5\u5efa\u5de5\u5b66
p2357
aV\u65e5\u5de5
p2358
aV\u65e5\u7523\u8eca\u4f53
p2359
aV\u30cb\u30c3\u30b3\u30fc
p2360
aV\u65e5\u65b0\u88fd\u92fc
p2361
aV\u65e5\u65b0\u88fd\u7cd6
p2362
aV\u65e5\u6e05\u88fd\u7c89\u30b0\u30eb\u30fc\u30d7\u672c\u793e
p2363
aV\u65e5\u65b0\u5546\u4e8b
p2364
aV\u65e5\u6e05\u98df\u54c1\u30db\u30fc\u30eb\u30c7\u30a3\u30f3\u30b0\u30b9
p2365
aV\u65e5\u9032\u5de5\u5177
p2366
aV\u65e5\u65b0\u96fb\u6a5f
p2367
aV\u65e5\u6e05\u7d21\u30db\u30fc\u30eb\u30c7\u30a3\u30f3\u30b0\u30b9
p2368
aV\u65e5\u6e05\u30aa\u30a4\u30ea\u30aa\u30b0\u30eb\u30fc\u30d7
p2369
aV\u65e5\u65b0
p2370
aV\u65e5\u795e\u4e0d\u52d5\u7523
p2371
aV\u65e5\u4fe1\u5de5\u696d
p2372
aV\u30cb\u30c3\u30bb\u30f3\u30db\u30fc\u30eb\u30c7\u30a3\u30f3\u30b0\u30b9
p2373
aV\u65e5\u5275\u30d7\u30ed\u30cb\u30c6\u30a3
p2374
aV\u65e5\u7acb\u30cf\u30a4\u30c6\u30af\u30ce\u30ed\u30b8\u30fc\u30ba
p2375
aV\u65e5\u7cbe\u30a8\u30fc\u30fb\u30a8\u30b9\u30fb\u30d3\u30fc\u6a5f\u68b0
p2376
aV\u65e5\u7cbe\u6a39\u8102\u5de5\u696d
p2377
aV\u30cb\u30c3\u30bf
p2378
aV\u65e5\u6c34\u88fd\u85ac
p2379
aV\u30cb\u30c3\u30bb\u30a4
p2380
aV\u65e5\u6210\u30d3\u30eb\u30c9\u5de5\u696d
p2381
aV\u65b0\u7530\u30bc\u30e9\u30c1\u30f3
p2382
aV\u65e5\u6771\u5de5\u696d
p2383
aV\u65e5\u6771\u7cbe\u5de5
p2384
aV\uff2e\uff29\uff34\uff34\uff2f\uff28
p2385
aV\u65e5\u6771\u30a8\u30d5\u30b7\u30fc
p2386
aV\u30cb\u30c3\u30c1\u30c4
p2387
aV\u65e5\u9244\u4f4f\u91d1\u7269\u7523
p2388
aV\u65e5\u6771\u5de5\u5668
p2389
aV\u65e5\u6771\u5bcc\u58eb\u88fd\u7c89
p2390
aV\u65e5\u9244\u9271\u696d
p2391
aV\u65e5\u6771\u5316\u5de5
p2392
aV\u65e5\u935b\u30d0\u30eb\u30d6
p2393
aV\u30cb\u30c3\u30d4
p2394
aV\u65e5\u90a6\u7523\u696d
p2395
aV\u65e5\u6771\u88fd\u7db2
p2396
aV\u65e5\u6771\u96fb\u5de5
p2397
aV\u65e5\u672c\u30a2\u30b8\u30a2\u6295\u8cc7
p2398
aV\u65e5\u672c\u30a2\u30d3\u30aa\u30cb\u30af\u30b9
p2399
aV\u65e5\u7279\u30a8\u30f3\u30b8\u30cb\u30a2\u30ea\u30f3\u30b0
p2400
aV\u65e5\u6771\u7d21\u7e3e
p2401
aV\u65e5\u6771\u30d9\u30b9\u30c8
p2402
aV\u65e5\u7279\u5efa\u8a2d
p2403
aV\u30cb\u30c3\u30d1\u30f3\u30ec\u30f3\u30bf\u30eb
p2404
aV\u65e5\u672c\u30a2\u30af\u30a2
p2405
aV\u65e5\u672c\u4e00\u30bd\u30d5\u30c8\u30a6\u30a7\u30a2
p2406
aV\u65e5\u533b\u5de5
p2407
aV\u65e5\u672c\u30a8\u30e0\u30fb\u30c7\u30a3\u30fb\u30a8\u30e0
p2408
aV\u30a8\u30eb\u30fb\u30b7\u30fc\u30fb\u30a8\u30fc\u30db\u30fc\u30eb\u30c7\u30a3\u30f3\u30b0\u30b9
p2409
aV\u65e5\u672c\u30a2\u30f3\u30c6\u30ca
p2410
aV\u65e5\u672c\u677f\u785d\u5b50
p2411
aV\u65e5\u672c\u30a4\u30f3\u30bf\u30fc
p2412
aV\u65e5\u672c\u30a8\u30a2\u30fc\u30c6\u30c3\u30af
p2413
aV\u65e5\u672c\uff2d\uff06\uff21\u30bb\u30f3\u30bf\u30fc
p2414
aV\u65e5\u672c\u30a8\u30b9\u30b3\u30f3
p2415
aV\u65e5\u672c\u30a8\u30b9\u30fb\u30a8\u30a4\u30c1\u30fb\u30a8\u30eb
p2416
aV\u65e5\u672c\u30a8\u30b9\u30ea\u30fc\u30c9
p2417
aV\u65e5\u672c\u30a8\u30de\u30fc\u30b8\u30a7\u30f3\u30b7\u30fc\u30a2\u30b7\u30b9\u30bf\u30f3\u30b9
p2418
aV\u65e5\u672c\u30ab\u30fc\u30d0\u30a4\u30c9\u5de5\u696d
p2419
aV\u65e5\u672c\u30aa\u30d5\u30a3\u30b9\u30fb\u30b7\u30b9\u30c6\u30e0
p2420
aV\u65e5\u672c\u30a8\u30f3\u30bf\u30fc\u30d7\u30e9\u30a4\u30ba
p2421
aV\u65e5\u672c\u6d77\u6d0b\u6398\u524a
p2422
aV\u65e5\u672c\u30aa\u30e9\u30af\u30eb
p2423
aV\uff2e\uff2b\uff2b\u30b9\u30a4\u30c3\u30c1\u30ba
p2424
aV\u65e5\u672c\u5316\u5b66\u5de5\u696d
p2425
aV\u65e5\u672c\u5316\u5b66\u7523\u696d
p2426
aV\u65e5\u672c\u30ab\u30fc\u30dc\u30f3
p2427
aV\u65e5\u672c\u5316\u85ac
p2428
aV\u65e5\u672c\u7ba1\u8ca1
p2429
aV\u65e5\u672c\u74e6\u65af
p2430
aV\u30cb\u30c3\u30ad
p2431
aV\u65e5\u672c\u7d19\u30d1\u30eb\u30d7\u5546\u4e8b
p2432
aV\u65e5\u672c\u788d\u5b50
p2433
aV\uff2f\uff33\uff2a\uff22\u30db\u30fc\u30eb\u30c7\u30a3\u30f3\u30b0\u30b9
p2434
aV\u65e5\u672c\u5316\u6210
p2435
aV\u65e5\u672c\u57fa\u790e\u6280\u8853
p2436
aV\u65e5\u672c\u7ba1\u7406\u30bb\u30f3\u30bf\u30fc
p2437
aV\u65e5\u672c\u4e7e\u6e9c\u5de5\u696d
p2438
aV\u65e5\u672c\u6bdb\u7e54
p2439
aV\uff2a\uff23\uff32\u30d5\u30a1\u30fc\u30de
p2440
aV\u65e5\u672c\u7a7a\u8abf\u30b5\u30fc\u30d3\u30b9
p2441
aV\u30cf\u30a4\u30ec\u30c3\u30af\u30b9\u30b3\u30fc\u30dd\u30ec\u30fc\u30b7\u30e7\u30f3
p2442
aV\u65e5\u672c\u30b1\u30df\u30d5\u30a1
p2443
aV\u65e5\u672c\u7814\u7d19
p2444
aV\u65e5\u672c\u91d1\u92ad\u6a5f\u68b0
p2445
aV\u65e5\u672c\u91d1\u5c5e
p2446
aV\u65e5\u672c\u30b1\u30a2\u30b5\u30d7\u30e9\u30a4
p2447
aV\u65e5\u672c\u7a7a\u6e2f\u30d3\u30eb\u30c7\u30f3\u30b0
p2448
aV\u65e5\u672c\u30ae\u30a2\u5de5\u696d
p2449
aV\u65e5\u672c\u9280\u884c
p2450
aV\u65e5\u672c\u30b1\u30df\u30b3\u30f3
p2451
aV\u65e5\u672c\u8efd\u91d1\u5c5e\u30db\u30fc\u30eb\u30c7\u30a3\u30f3\u30b0\u30b9
p2452
aV\u30cb\u30c3\u30dd\u30f3\u9ad8\u5ea6\u7d19\u5de5\u696d
p2453
aV\u65e5\u672c\u30b3\u30ed\u30e0\u30d3\u30a2
p2454
aV\u65e5\u672c\u9ad8\u7d14\u5ea6\u5316\u5b66
p2455
aV\u65e5\u672c\u8208\u696d
p2456
aV\u65e5\u672c\u822a\u7a7a\u96fb\u5b50\u5de5\u696d
p2457
aV\u65e5\u672c\u5149\u96fb\u5de5\u696d
p2458
aV\u65e5\u672c\u5de5\u55b6
p2459
aV\u65e5\u672c\uff2b\uff26\uff23\u30db\u30fc\u30eb\u30c7\u30a3\u30f3\u30b0\u30b9
p2460
aV\u65e5\u672c\u9ad8\u5468\u6ce2\u92fc\u696d
p2461
aV\u65e5\u672c\u822a\u7a7a
p2462
aV\u65e5\u672c\u68b1\u5305\u904b\u8f38\u5009\u5eab
p2463
aV\u65e5\u672c\u5408\u6210\u5316\u5b66\u5de5\u696d
p2464
aV\u5927\u967d\u65e5\u9178
p2465
aV\u65e5\u672c\u30b5\u30fc\u30c9\u30fb\u30d1\u30fc\u30c6\u30a3
p2466
aV\u65e5\u672c\u30b3\u30f3\u30d9\u30e4
p2467
aV\u65e5\u672c\u30b3\u30f3\u30af\u30ea\u30fc\u30c8\u5de5\u696d
p2468
aV\uff2e\uff23\uff33\uff06\uff21
p2469
aV\u65e5\u672c\u30b3\u30f3\u30d4\u30e5\u30fc\u30bf\u30fb\u30c0\u30a4\u30ca\u30df\u30af\u30b9
p2470
aV\u65e5\u672c\u30b3\u30f3\u30bb\u30d7\u30c8
p2471
aV\u3042\u304a\u305e\u3089\u9280\u884c
p2472
aV\uff2e\uff33\uff24
p2473
aV\u30b7\u30e3\u30af\u30ea\u30fc\u30fb\u30b0\u30ed\u30fc\u30d0\u30eb\u30fb\u30b0\u30eb\u30fc\u30d7
p2474
aV\u65e5\u672c\u51fa\u7248\u8cbf\u6613
p2475
aV\u65e5\u672c\u5546\u696d\u958b\u767a
p2476
aV\u65e5\u672c\u30b7\u30a4\u30a8\u30e0\u30b1\u30a4
p2477
aV\u65e5\u672c\u8272\u6750\u5de5\u696d\u7814\u7a76\u6240
p2478
aV\u65e5\u672c\u30b7\u30b9\u30c6\u30e0\u6280\u8853
p2479
aV\u65e5\u672c\u30b7\u30b9\u30c6\u30e0\u30a6\u30a8\u30a2
p2480
aV\u65e5\u672c\u8eca\u8f0c\u88fd\u9020
p2481
aV\u65e5\u672c\u8a3c\u5238\u91d1\u878d
p2482
aV\u65e5\u672c\u793e\u5b85\u30b5\u30fc\u30d3\u30b9
p2483
aV\u65e5\u672c\u5199\u771f\u5370\u5237
p2484
aV\u65e5\u672c\u7cbe\u5316
p2485
aV\u65e5\u672c\u4fe1\u53f7
p2486
aV\u65e5\u672c\u65b0\u85ac
p2487
aV\uff2e\uff2a\uff33
p2488
aV\u65e5\u672c\u6c34\u7523
p2489
aV\u65e5\u672c\u30b9\u30ad\u30fc\u5834\u958b\u767a
p2490
aV\u65e5\u672c\u88fd\u7f50
p2491
aV\u65e5\u672c\u98df\u54c1\u5316\u5de5
p2492
aV\u65e5\u672c\u89e6\u5a92
p2493
aV\u65e5\u672c\u4f38\u9285
p2494
aV\u65e5\u672c\u7cbe\u6a5f
p2495
aV\u65e5\u672c\u7cbe\u9271
p2496
aV\u65e5\u672c\u88fd\u92fc\u6240
p2497
aV\u30d5\u30b8\u65e5\u672c\u7cbe\u7cd6
p2498
aV\u65e5\u672c\u7cbe\u5de5
p2499
aV\u65e5\u672c\u88fd\u7c89
p2500
aV\u65e5\u672c\u7cbe\u7dda
p2501
aV\u65e5\u672c\u88fd\u9ebb
p2502
aV\u65e5\u672c\u88fd\u7d19
p2503
aV\u65e5\u672c\u92f3\u9020
p2504
aV\u65e5\u672c\u92f3\u9244\u7ba1
p2505
aV\u65e5\u672c\u30bb\u30e9\u30df\u30c3\u30af
p2506
aV\u65e5\u672c\u30bc\u30aa\u30f3
p2507
aV\u65e5\u672c\u66f9\u9054
p2508
aV\u65e5\u672c\u5275\u767a\u30b0\u30eb\u30fc\u30d7
p2509
aV\u65e5\u672c\u77f3\u6cb9\u8f38\u9001
p2510
aV\u65e5\u672c\u7cbe\u5bc6
p2511
aV\u65e5\u672c\u99d0\u8eca\u5834\u958b\u767a
p2512
aV\u65e5\u672c\u305f\u3070\u3053\u7523\u696d
p2513
aV\u65e5\u672c\u30bf\u30f3\u30b0\u30b9\u30c6\u30f3
p2514
aV\u65e5\u672c\u7cbe\u874b
p2515
aV\u65e5\u672c\u901a\u4fe1
p2516
aV\u65e5\u672c\u62b5\u6297\u5668\u88fd\u4f5c\u6240
p2517
aV\u65e5\u672c\u30c6\u30ec\u30d3\u30db\u30fc\u30eb\u30c7\u30a3\u30f3\u30b0\u30b9
p2518
aV\u65e5\u672c\u8abf\u5264
p2519
aV\u65e5\u672c\u751c\u83dc\u88fd\u7cd6
p2520
aV\u65e5\u672c\u901a\u904b
p2521
aV\u65e5\u672c\u30c6\u30af\u30ce\u30fb\u30e9\u30dc
p2522
aV\u65e5\u672c\u30c7\u30b3\u30e9\u30c3\u30af\u30b9
p2523
aV\u65e5\u672c\u30c6\u30ec\u30db\u30f3
p2524
aV\u65b0\u751f\u9280\u884c
p2525
aV\uff2e\uff25\uff23\u30cd\u30c3\u30c4\u30a8\u30b9\u30a2\u30a4
p2526
aV\u65e5\u672c\u96fb\u6280
p2527
aV\u65e5\u672c\u96fb\u8a08
p2528
aV\u65e5\u672c\u96fb\u6c17
p2529
aV\u65e5\u672c\u96fb\u5b50
p2530
aV\u65e5\u672c\u96fb\u6c17\u785d\u5b50
p2531
aV\u65b0\u65e5\u672c\u96fb\u5de5
p2532
aV\u65e5\u672c\u30c7\u30b8\u30bf\u30eb\u7814\u7a76\u6240
p2533
aV\u65e5\u672c\u96fb\u7523
p2534
aV\u65e5\u672c\u7279\u6b8a\u9676\u696d
p2535
aV\u65e5\u672c\u7279\u6b8a\u5857\u6599
p2536
aV\u65e5\u672c\u96fb\u901a
p2537
aV\uff2e\uff24\uff33
p2538
aV\u65e5\u672c\u96fb\u5b50\u6750\u6599
p2539
aV\u65e5\u672c\u30c8\u30e0\u30bd\u30f3
p2540
aV\u65e5\u672c\u96fb\u8a2d\u5de5\u696d
p2541
aV\u65e5\u672c\u96fb\u7dda\u5de5\u696d
p2542
aV\u65e5\u672c\u96fb\u4fe1\u96fb\u8a71
p2543
aV\u65e5\u672c\u96fb\u6ce2\u5de5\u696d
p2544
aV\u65e5\u672c\u30c8\u30ea\u30e0
p2545
aV\u65e5\u672c\u52d5\u7269\u9ad8\u5ea6\u533b\u7642\u30bb\u30f3\u30bf\u30fc
p2546
aV\u65e5\u672c\u30c8\u30e9\u30f3\u30b9\u30b7\u30c6\u30a3
p2547
aV\u65e5\u672c\u30cf\u30a6\u30ba\u30a4\u30f3\u30b0
p2548
aV\u65e5\u672c\u30d0\u30a4\u30ea\u30fc\u30f3
p2549
aV\u65e5\u672c\u8fb2\u85ac
p2550
aV\u65e5\u672c\u9053\u8def
p2551
aV\u65e5\u672c\u30c9\u30e9\u30a4\u30b1\u30df\u30ab\u30eb
p2552
aV\u65e5\u672c\u767a\u689d
p2553
aV\u65e5\u672c\u30cf\u30e0
p2554
aV\u65e5\u672c\u30d1\u30fc\u30ab\u30e9\u30a4\u30b8\u30f3\u30b0
p2555
aV\u65e5\u672c\u30d1\u30ec\u30c3\u30c8\u30d7\u30fc\u30eb
p2556
aV\uff2a\uff22\uff23\uff23\u30db\u30fc\u30eb\u30c7\u30a3\u30f3\u30b0\u30b9
p2557
aV\u65e5\u672c\u30d3\u30e5\u30fc\u30db\u30c6\u30eb
p2558
aV\u661f\u5149\uff30\uff2d\uff23
p2559
aV\u65e5\u672c\uff30\uff23\u30b5\u30fc\u30d3\u30b9
p2560
aV\u65e5\u672c\u30d4\u30b9\u30c8\u30f3\u30ea\u30f3\u30b0
p2561
aV\u65e5\u672c\u30d4\u30e9\u30fc\u5de5\u696d
p2562
aV\uff2e\uff26\uff2b\u30db\u30fc\u30eb\u30c7\u30a3\u30f3\u30b0\u30b9
p2563
aV\u65e5\u672c\u30d5\u30a1\u30eb\u30b3\u30e0
p2564
aV\u65e5\u672c\u30d2\u30e5\u30fc\u30e0
p2565
aV\u65e5\u672c\uff22\uff33\u653e\u9001
p2566
aV\u65e5\u672c\u30d4\u30b0\u30e1\u30f3\u30c8
p2567
aV\u30a2\u30b8\u30a2\u30fb\u30a2\u30e9\u30a4\u30a2\u30f3\u30b9\u30fb\u30db\u30fc\u30eb\u30c7\u30a3\u30f3\u30b0\u30b9
p2568
aV\u65e5\u672c\u30d0\u30eb\u30ab\u30fc\u5de5\u696d
p2569
aV\u65e5\u672c\u30d1\u30ef\u30fc\u30d5\u30a1\u30b9\u30cb\u30f3\u30b0
p2570
aV\u65e5\u672c\u30da\u30a4\u30f3\u30c8\u30db\u30fc\u30eb\u30c7\u30a3\u30f3\u30b0\u30b9
p2571
aV\uff2e\uff29\uff30\uff30\uff2f
p2572
aV\u65e5\u672c\u30d5\u30a8\u30eb\u30c8
p2573
aV\u65e5\u672c\u30d5\u30a7\u30f3\u30aa\u30fc\u30eb
p2574
aV\u65e5\u672c\u30d7\u30e9\u30b9\u30c8
p2575
aV\u65e5\u672c\u30d7\u30ea\u30e1\u30c3\u30af\u30b9
p2576
aV\u65e5\u672c\u30d5\u30a9\u30fc\u30e0\u30b5\u30fc\u30d3\u30b9
p2577
aV\u65e5\u672c\u30de\u30af\u30c9\u30ca\u30eb\u30c9\u30db\u30fc\u30eb\u30c7\u30a3\u30f3\u30b0\u30b9
p2578
aV\u65e5\u672c\u98a8\u529b\u958b\u767a
p2579
aV\u65e5\u672c\u30de\u30a4\u30af\u30ed\u30cb\u30af\u30b9
p2580
aV\u65e5\u672c\u30d7\u30ed\u30bb\u30b9
p2581
aV\u65e5\u672c\u30d5\u30a4\u30eb\u30b3\u30f3
p2582
aV\u65e5\u672c\u7121\u7dda
p2583
aV\u65e5\u672c\u30e1\u30c7\u30a3\u30ab\u30eb\u30cd\u30c3\u30c8\u30b3\u30df\u30e5\u30cb\u30b1\u30fc\u30b7\u30e7\u30f3\u30ba
p2584
aV\u65e5\u672c\u30de\u30cb\u30e5\u30d5\u30a1\u30af\u30c1\u30e3\u30ea\u30f3\u30b0\u30b5\u30fc\u30d3\u30b9
p2585
aV\u65e5\u672c\u30e6\u30cb\u30b7\u30b9
p2586
aV\u65e5\u6cb9
p2587
aV\u65e5\u672c\u5c71\u6751\u785d\u5b50
p2588
aV\u30cb\u30c1\u30e6\u4e09\u83f1\u30d5\u30a9\u30fc\u30af\u30ea\u30d5\u30c8
p2589
aV\u65e5\u672c\u90f5\u8239
p2590
aV\uff2d\uff49\uff50\uff4f\uff58
p2591
aV\u65e5\u672c\u51b6\u91d1\u5de5\u696d
p2592
aV\u65e5\u672c\u30e6\u30d4\u30ab
p2593
aV\u65e5\u672c\u30e9\u30a4\u30c8\u30f3
p2594
aV\u65e5\u672c\u548c\u88c5\u30db\u30fc\u30eb\u30c7\u30a3\u30f3\u30b0\u30b9
p2595
aV\u65e5\u672c\u30e9\u30a4\u30d5\u30e9\u30a4\u30f3
p2596
aV\u30ea\u30ed\u30fb\u30db\u30fc\u30eb\u30c7\u30a3\u30f3\u30b0
p2597
aV\u30ed\u30f3\u30b0\u30e9\u30a4\u30d5\u30db\u30fc\u30eb\u30c7\u30a3\u30f3\u30b0
p2598
aV\u65e5\u672c\u30e9\u30c3\u30c9
p2599
aV\u65e5\u672c\u30ed\u30b8\u30c6\u30e0
p2600
aV\u65e5\u672c\u5769\u581d
p2601
aV\u30a8\u30b3\u30ca\u30c3\u30af\u30db\u30fc\u30eb\u30c7\u30a3\u30f3\u30b0\u30b9
p2602
aV\u30cb\u30ec\u30b3
p2603
aV\u4efb\u5929\u5802
p2604
aV\u30cb\u30e5\u30fc\u30c6\u30c3\u30af
p2605
aV\u30cb\u30e5\u30fc\u30c8\u30f3\u30fb\u30d5\u30a3\u30ca\u30f3\u30b7\u30e3\u30eb\u30fb\u30b3\u30f3\u30b5\u30eb\u30c6\u30a3\u30f3\u30b0
p2606
aV\u30cb\u30e5\u30fc\u30d5\u30ec\u30a2\u30c6\u30af\u30ce\u30ed\u30b8\u30fc
p2607
aV\u30cb\u30d5\u30c6\u30a3
p2608
aV\u30cd\u30af\u30b9\u30c8\u30a6\u30a7\u30a2
p2609
aV\u30cb\u30db\u30f3\u30d5\u30e9\u30c3\u30b7\u30e5
p2610
aV\u30cb\u30c8\u30ea\u30db\u30fc\u30eb\u30c7\u30a3\u30f3\u30b0\u30b9
p2611
aV\u30cd\u30af\u30b7\u30a3\u30fc\u30ba
p2612
aV\u30cb\u30d5\u30b3
p2613
aV\u30cd\u30af\u30b9\u30c8
p2614
aV\u30cd\u30af\u30b9\u30c8\u30b8\u30a7\u30f3
p2615
aV\u30cd\u30af\u30b9\u30b0\u30eb\u30fc\u30d7
p2616
aV\u30cd\u30c3\u30c8\u30a4\u30e4\u30fc\u30b0\u30eb\u30fc\u30d7
p2617
aV\u30cd\u30dd\u30f3
p2618
aV\u30ce\u30fc\u30ea\u30c4
p2619
aV\u30cd\u30c3\u30c8\u30ef\u30f3\u30b7\u30b9\u30c6\u30e0\u30ba
p2620
aV\u30cd\u30af\u30b9\u30c6\u30fc\u30b8
p2621
aV\uff46\uff4f\uff4e\uff46\uff55\uff4e
p2622
aV\uff22\uff25\uff25\uff2e\uff2f\uff33
p2623
aV\u30cd\u30d7\u30ed\u30b8\u30e3\u30d1\u30f3
p2624
aV\u30cd\u30c3\u30c8\u30ef\u30fc\u30af\u30d0\u30ea\u30e5\u30fc\u30b3\u30f3\u30dd\u30cd\u30f3\u30c4
p2625
aV\u30e6\u30ca\u30a4\u30c6\u30c3\u30c9
p2626
aV\u30cd\u30af\u30bd\u30f3
p2627
aV\u30ce\u30fc\u30ea\u30c4\u92fc\u6a5f
p2628
aV\u80fd\u7f8e\u9632\u707d
p2629
aV\u30ce\u30c0
p2630
aV\u30ce\u30d0\u30ec\u30fc\u30bc
p2631
aV\u30ce\u30b8\u30de
p2632
aV\u91ce\u6751\u7dcf\u5408\u7814\u7a76\u6240
p2633
aV\u30ce\u30b6\u30ef
p2634
aV\u4e43\u6751\u5de5\u85dd\u793e
p2635
aV\u91ce\u5d0e\u5370\u5237\u7d19\u696d
p2636
aV\u91ce\u6751\u30db\u30fc\u30eb\u30c7\u30a3\u30f3\u30b0\u30b9
p2637
aV\u30ce\u30a8\u30d3\u30a2\u30db\u30fc\u30eb\u30c7\u30a3\u30f3\u30b0\u30b9
p2638
aV\u30cf\u30fc\u30e2\u30cb\u30c3\u30af\u30fb\u30c9\u30e9\u30a4\u30d6\u30fb\u30b7\u30b9\u30c6\u30e0\u30ba
p2639
aV\u30cf\u30a4\u30c7\u30a4\u65e5\u9ad8
p2640
aV\u30cf\u30a4\u30d1\u30fc
p2641
aV\u30cf\u30a4\u30de\u30c3\u30af\u30b9
p2642
aV\u91ce\u6751\u30de\u30a4\u30af\u30ed\u30fb\u30b5\u30a4\u30a8\u30f3\u30b9
p2643
aV\u30ce\u30ea\u30bf\u30b1\u30ab\u30f3\u30d1\u30cb\u30fc\u30ea\u30df\u30c6\u30c9
p2644
aV\u30cf\u30fc\u30c4\u30e6\u30ca\u30a4\u30c6\u30c3\u30c9\u30b0\u30eb\u30fc\u30d7
p2645
aV\u30cf\u30fc\u30c9\u30aa\u30d5\u30b3\u30fc\u30dd\u30ec\u30fc\u30b7\u30e7\u30f3
p2646
aV\u91ce\u6751\u4e0d\u52d5\u7523\u30db\u30fc\u30eb\u30c7\u30a3\u30f3\u30b0\u30b9
p2647
aV\u30cf\u30fc\u30d0\u30fc\u7814\u7a76\u6240
p2648
aV\u30cf\u30fc\u30af\u30b9\u30ec\u30a4
p2649
aV\u30cf\u30a4\u30d6\u30ea\u30c3\u30c9\u30fb\u30b5\u30fc\u30d3\u30b9
p2650
aV\u30cf\u30a6\u30b9\u3000\u30aa\u30d6\u3000\u30ed\u30fc\u30bc
p2651
aV\u30cf\u30a6\u30b9\u30d5\u30ea\u30fc\u30c0\u30e0
p2652
aV\u306f\u304b\u305f\u5320\u5de5\u82b8
p2653
aV\u8429\u539f\u5de5\u696d
p2654
aV\u535a\u5c55
p2655
aV\u4f2f\u6771
p2656
aV\u30cf\u30a6\u30b9\u98df\u54c1\u30b0\u30eb\u30fc\u30d7\u672c\u793e
p2657
aV\u30cf\u30a6\u30b9\u30c9\u30a5
p2658
aV\u767d\u9752\u820e
p2659
aV\u535a\u5831\u5802\uff24\uff39\u30db\u30fc\u30eb\u30c7\u30a3\u30f3\u30b0\u30b9
p2660
aV\u8429\u539f\u96fb\u6c17
p2661
aV\u767d\u9285
p2662
aV\u767d\u6d0b\u820e
p2663
aV\u30cf\u30a6\u30b9\u30b3\u30e0
p2664
aV\u5b89\u85e4\u30fb\u9593
p2665
aV\u6a4b\u672c\u7dcf\u696d
p2666
aV\u516b\u5341\u4e8c\u9280\u884c
p2667
aV\u30cf\u30c1\u30d0\u30f3
p2668
aV\uff23\uff26\uff33\u30b3\u30fc\u30dd\u30ec\u30fc\u30b7\u30e7\u30f3
p2669
aV\u9577\u8c37\u5de5\u30b3\u30fc\u30dd\u30ec\u30fc\u30b7\u30e7\u30f3
p2670
aV\u306f\u305b\u304c\u308f
p2671
aV\u306f\u3054\u308d\u3082\u30d5\u30fc\u30ba
p2672
aV\u30cf\u30ca\u30c6\u30f3
p2673
aV\u521d\u7a42\u5546\u4e8b
p2674
aV\u9577\u8c37\u5ddd\u9999\u6599
p2675
aV\u30cf\u30d3\u30c3\u30af\u30b9
p2676
aV\u30cf\u30d4\u30cd\u30b9\u30fb\u30a2\u30f3\u30c9\u30fb\u30c7\u30a3
p2677
aV\u6d5c\u677e\u30db\u30c8\u30cb\u30af\u30b9
p2678
aV\uff28\uff41\uff4d\uff45\uff45
p2679
aV\u30cf\u30cb\u30fc\u30ba
p2680
aV\uff28\uff21\uff22\uff29\uff34\uff21\u3000\uff23\uff32\uff21\uff26\uff34
p2681
aV\u30cf\u30d4\u30cd\u30c3\u30c8
p2682
aV\u30cf\u30d6
p2683
aV\u6d5c\u4e95\u7523\u696d
p2684
aV\u30cf\u30de\u30a4
p2685
aV\u6797\u517c\u7523\u696d
p2686
aV\u30cf\u30de\u30ad\u30e7\u30a6\u30ec\u30c3\u30af\u30b9
p2687
aV\u30cf\u30ea\u30de\u30d3\u30b9\u30c6\u30e0
p2688
aV\u306f\u308b\u3084\u307e\u5546\u4e8b
p2689
aV\u30a8\u30a4\u30c1\u30fb\u30c4\u30fc\u30fb\u30aa\u30fc\u3000\u30ea\u30c6\u30a4\u30ea\u30f3\u30b0
p2690
aV\u962a\u795e\u5185\u71c3\u6a5f\u5de5\u696d
p2691
aV\u30a2\u30af\u30b7\u30a2\u30eb\u3000\u30ea\u30c6\u30a4\u30ea\u30f3\u30b0
p2692
aV\u30cf\u30ea\u30de\u5316\u6210\u30b0\u30eb\u30fc\u30d7
p2693
aV\u30cf\u30ea\u30de\u5171\u548c\u7269\u7523
p2694
aV\u30cf\u30ed\u30fc\u30ba
p2695
aV\u539f\u7530\u5de5\u696d
p2696
aV\u962a\u6025\u962a\u795e\u30db\u30fc\u30eb\u30c7\u30a3\u30f3\u30b0\u30b9
p2697
aV\u539f\u5f18\u7523
p2698
aV\u30d0\u30c3\u30d5\u30a1\u30ed\u30fc
p2699
aV\u30d0\u30eb\u30af\u30db\u30fc\u30eb\u30c7\u30a3\u30f3\u30b0\u30b9
p2700
aV\u30b9\u30c8\u30e9\u30a4\u30c0\u30fc\u30ba
p2701
aV\u30d0\u30ed\u30fc
p2702
aV\u30d0\u30ea\u30e5\u30fc\u30b3\u30de\u30fc\u30b9
p2703
aV\u962a\u548c\u8208\u696d
p2704
aV\u30d0\u30a4\u30c6\u30c3\u30af
p2705
aV\u30d0\u30a4\u30bf\u30eb\u30b1\u30fc\u30a8\u30b9\u30b1\u30fc\u30fb\u30db\u30fc\u30eb\u30c7\u30a3\u30f3\u30b0\u30b9
p2706
aV\u30cf\u30f3\u30ba\u30de\u30f3
p2707
aV\u30d0\u30ea\u30e5\u30fc\uff28\uff32
p2708
aV\u30d1\u30b7\u30d5\u30a3\u30c3\u30af\u30b7\u30b9\u30c6\u30e0
p2709
aV\u30d1\u30b7\u30d5\u30a3\u30c3\u30af\u30cd\u30c3\u30c8
p2710
aV\u30d1\u30b9\u30b3
p2711
aV\u30d0\u30f3\u30c0\u30a4\u30ca\u30e0\u30b3\u30db\u30fc\u30eb\u30c7\u30a3\u30f3\u30b0\u30b9
p2712
aV\u30d0\u30f3\u30c9\u30fc\u5316\u5b66
p2713
aV\u30d1\u30a4\u30aa\u30e9\u30c3\u30af\u30b9
p2714
aV\u30d1\u30a4\u30d7\u30c9\u30d3\u30c3\u30c4
p2715
aV\u30d1\u30fc\u30af\uff12\uff14
p2716
aV\u30d1\u30a4\u30aa\u30cb\u30a2
p2717
aV\u30d1\u30fc\u30ab\u30fc\u30b3\u30fc\u30dd\u30ec\u30fc\u30b7\u30e7\u30f3
p2718
aV\u30d1\u30a6\u30c0\u30fc\u30c6\u30c3\u30af
p2719
aV\u30d1\u30a4\u30ed\u30c3\u30c8\u30b3\u30fc\u30dd\u30ec\u30fc\u30b7\u30e7\u30f3
p2720
aV\uff30\uff27\uff2d\u30db\u30fc\u30eb\u30c7\u30a3\u30f3\u30b0\u30b9
p2721
aV\u30d1\u30b9\u30dd\u30fc\u30c8
p2722
aV\uff30\uff21\uff2c\uff34\uff25\uff2b
p2723
aV\u30d1\u30ec\u30e2
p2724
aV\u30d1\u30d4\u30ec\u30b9
p2725
aV\u30d1\u30e9\u30de\u30a6\u30f3\u30c8\u30d9\u30c3\u30c9\u30db\u30fc\u30eb\u30c7\u30a3\u30f3\u30b0\u30b9
p2726
aV\u30d1\u30eb
p2727
aV\uff30\uff41\uff4c\uff54\uff41\uff43
p2728
aV\u30d1\u30e9\u30ab
p2729
aV\u3071\u3069
p2730
aV\u30d1\u30bd\u30ca\u30b0\u30eb\u30fc\u30d7
p2731
aV\u30d1\u30eb\u30b9\u30c6\u30c3\u30af\u5de5\u696d
p2732
aV\u30d1\u30eb\u30b3
p2733
aV\u30d2\u30fc\u30cf\u30a4\u30b9\u30c8\u7cbe\u5de5
p2734
aV\u65e5\u7f6e\u96fb\u6a5f
p2735
aV\u30d2\u30ac\u30b7\u30c8\u30a5\u30a8\u30f3\u30c6\u30a3\u30ef\u30f3
p2736
aV\u5149\u901a\u4fe1
p2737
aV\u5149\u30cf\u30a4\u30c4\u30fb\u30f4\u30a7\u30e9\u30b9
p2738
aV\u5149\u88fd\u4f5c\u6240
p2739
aV\u6bd4\u8f03\uff0e\uff43\uff4f\uff4d
p2740
aV\u30d1\u30f3\u30c1\u5de5\u696d
p2741
aV\u5149\u30d3\u30b8\u30cd\u30b9\u30d5\u30a9\u30fc\u30e0
p2742
aV\u6771\u65e5\u672c\u9280\u884c
p2743
aV\u80a5\u5f8c\u9280\u884c
p2744
aV\u65e5\u962a\u88fd\u4f5c\u6240
p2745
aV\u65e5\u7acb\u30ad\u30e3\u30d4\u30bf\u30eb
p2746
aV\u65e5\u7acb\u91d1\u5c5e
p2747
aV\u6771\u65e5\u672c\u65c5\u5ba2\u9244\u9053
p2748
aV\u4e45\u5149\u88fd\u85ac
p2749
aV\u65e5\u7acb\u5316\u6210
p2750
aV\u65e5\u7acb\u6a5f\u6750
p2751
aV\u30d2\u30ac\u30b7\u30de\u30eb
p2752
aV\u65e5\u672c\u30cf\u30a6\u30b9\u30db\u30fc\u30eb\u30c7\u30a3\u30f3\u30b0\u30b9
p2753
aV\u30d2\u30c3\u30d7
p2754
aV\u30d2\u30c8\u30fb\u30b3\u30df\u30e5\u30cb\u30b1\u30fc\u30b7\u30e7\u30f3\u30ba
p2755
aV\u65e5\u91ce\u81ea\u52d5\u8eca
p2756
aV\u30d2\u30d3\u30ce
p2757
aV\u6867\u5bb6\u30db\u30fc\u30eb\u30c7\u30a3\u30f3\u30b0\u30b9
p2758
aV\u65e5\u7acb\u9020\u8239
p2759
aV\u65e5\u7acb\u5de5\u6a5f
p2760
aV\u65e5\u7acb\u7269\u6d41
p2761
aV\u65e5\u7acb\u30de\u30af\u30bb\u30eb
p2762
aV\u65e5\u7acb\u88fd\u4f5c\u6240
p2763
aV\u65e5\u7acb\u5efa\u6a5f
p2764
aV\u30d2\u30e5\u30fc\u30de\u30f3\u30db\u30fc\u30eb\u30c7\u30a3\u30f3\u30b0\u30b9
p2765
aV\u30d2\u30e5\u30fc\u30de\u30f3\u30fb\u30e1\u30bf\u30dc\u30ed\u30fc\u30e0\u30fb\u30c6\u30af\u30ce\u30ed\u30b8\u30fc\u30ba
p2766
aV\u30d2\u30e5\u30fc\u30c6\u30c3\u30af\u30ce\u30aa\u30ea\u30f3
p2767
aV\u65e5\u6bd4\u8c37\u7dcf\u5408\u8a2d\u5099
p2768
aV\u5351\u5f25\u547c
p2769
aV\uff32\uff29\uff33\uff25
p2770
aV\u30d2\u30e5\u30fc\u30de\u30f3\u30a6\u30a7\u30d6
p2771
aV\u5175\u6a5f\u6d77\u904b
p2772
aV\u30d2\u30de\u30e9\u30e4
p2773
aV\u767e\u4e94\u9280\u884c
p2774
aV\u767e\u5341\u56db\u9280\u884c
p2775
aV\u30d2\u30e9\u30ce\u30c6\u30af\u30b7\u30fc\u30c9
p2776
aV\u3072\u3089\u307e\u3064
p2777
aV\u30d2\u30e9\u30ad
p2778
aV\u30a8\u30a4\u30c1\u30ef\u30f3
p2779
aV\u5e73\u6cb3\u30d2\u30e5\u30fc\u30c6\u30c3\u30af
p2780
aV\u5e73\u7530\u6a5f\u5de5
p2781
aV\uff2f\uff41\uff4b\u3000\u30ad\u30e3\u30d4\u30bf\u30eb
p2782
aV\u5e83\u5cf6\u30ac\u30b9
p2783
aV\u30bd\u30eb\u30b3\u30e0
p2784
aV\u5e73\u8cc0
p2785
aV\u5e83\u5cf6\u9280\u884c
p2786
aV\u30d2\u30ed\u30bb\u96fb\u6a5f
p2787
aV\uff22\uff0d\uff32\u3000\u30b5\u30fc\u30c6\u30a3\u30ef\u30f3\u3000\u30a2\u30a4\u30b9\u30af\u30ea\u30fc\u30e0
p2788
aV\u30a8\u30e0\u30fb\u30a8\u30a4\u30c1\u30fb\u30b0\u30eb\u30fc\u30d7
p2789
aV\u30d3\u30fc\u30a4\u30f3\u30b0
p2790
aV\u30d3\u30fc\u30de\u30c3\u30d7
p2791
aV\u30d3\u30fc\u30ed\u30c3\u30c8
p2792
aV\u30d3\u30b1\u30f3\u30c6\u30af\u30ce
p2793
aV\u30e6\u30cb\u30ea\u30bf
p2794
aV\u30d3\u30fc\u30fb\u30a8\u30e0\u30fb\u30a8\u30eb
p2795
aV\u30d3\u30aa\u30d5\u30a7\u30eb\u30df\u30f3\u88fd\u85ac
p2796
aV\u30d3\u30fc\u30a2\u30fc\u30eb\u30db\u30fc\u30eb\u30c7\u30a3\u30f3\u30b0\u30b9
p2797
aV\u5e83\u5cf6\u96fb\u9244
p2798
aV\u30d3\u30b8\u30cd\u30b9\u30fb\u30ef\u30f3\u30db\u30fc\u30eb\u30c7\u30a3\u30f3\u30b0\u30b9
p2799
aV\u30d3\u30c3\u30c8\u30a2\u30a4\u30eb
p2800
aV\u30d3\u30e5\u30fc\u30c6\u30a3\u82b1\u58c7
p2801
aV\u30d3\u30e5\u30fc\u30c6\u30a3\u30ac\u30ec\u30fc\u30b8
p2802
aV\u30d3\u30ea\u30f3\u30b0\u30b7\u30b9\u30c6\u30e0
p2803
aV\uff30\uff06\uff30\u30db\u30fc\u30eb\u30c7\u30a3\u30f3\u30b0\u30b9
p2804
aV\u30d3\u30b8\u30cd\u30b9\u30fb\u30d6\u30ec\u30fc\u30af\u30b9\u30eb\u30fc
p2805
aV\u30d3\u30c3\u30af\u30ab\u30e1\u30e9
p2806
aV\u30d3\u30b8\u30cd\u30b9\u30d6\u30ec\u30a4\u30f3\u592a\u7530\u662d\u548c
p2807
aV\u30d4\u30fc\u30a8\u30a4
p2808
aV\u30d4\u30fc\u30a8\u30b9\u4e09\u83f1
p2809
aV\u30b8\u30a7\u30af\u30b7\u30fc\u30c9
p2810
aV\u30d4\u30c3\u30af\u30eb\u30b9\u30b3\u30fc\u30dd\u30ec\u30fc\u30b7\u30e7\u30f3
p2811
aV\u30d5\u30fc\u30b8\u30e3\u30fc\u30b9\u30db\u30fc\u30eb\u30c7\u30a3\u30f3\u30b0\u30b9
p2812
aV\u30d5\u30fc\u30de\u30a4\u30b9\u30bf\u30fc\u30a8\u30ec\u30af\u30c8\u30ed\u30cb\u30af\u30b9
p2813
aV\u30d5\u30a1\u30a4\u30f3\u30c7\u30c3\u30af\u30b9
p2814
aV\u30d4\u30fc\u30fb\u30b7\u30fc\u30fb\u30a8\u30fc
p2815
aV\u30d4\u30fc\u30b7\u30fc\u30c7\u30dd\u30b3\u30fc\u30dd\u30ec\u30fc\u30b7\u30e7\u30f3
p2816
aV\u3074\u3042
p2817
aV\u30d4\u30a8\u30c8\u30ed
p2818
aV\u30d5\u30a1\u30fc\u30b9\u30c8\u30a8\u30b9\u30b3
p2819
aV\u30d5\u30a1\u30fc\u30b9\u30c8\u30b3\u30fc\u30dd\u30ec\u30fc\u30b7\u30e7\u30f3
p2820
aV\u30d4\u30b8\u30e7\u30f3
p2821
aV\u30d4\u30af\u30bb\u30e9
p2822
aV\u30d4\u30fc\u30d7\u30eb
p2823
aV\u30d5\u30a1\u30df\u30ea\u30fc\u30de\u30fc\u30c8
p2824
aV\u30d5\u30a1\u30eb\u30b3\u30db\u30fc\u30eb\u30c7\u30a3\u30f3\u30b0\u30b9
p2825
aV\u30d5\u30a1\u30fc\u30b9\u30c8\u4f4f\u5efa
p2826
aV\u30d5\u30a1\u30fc\u30b9\u30c8\u30d6\u30e9\u30b6\u30fc\u30ba
p2827
aV\u30d5\u30a1\u30fc\u30de\u30e9\u30a4\u30ba\u30db\u30fc\u30eb\u30c7\u30a3\u30f3\u30b0\u30b9
p2828
aV\u30d5\u30a1\u30fc\u30b9\u30c8\u30ed\u30b8\u30c3\u30af
p2829
aV\u30d5\u30a1\u30ca\u30c3\u30af
p2830
aV\u30d5\u30a1\u30fc\u30de\u30d5\u30fc\u30ba
p2831
aV\u30d5\u30a1\u30f3\u30b1\u30eb
p2832
aV\u30d5\u30a1\u30df\u30ea\u30fc
p2833
aV\u30d5\u30a1\u30eb\u30c6\u30c3\u30af
p2834
aV\u30d5\u30a1\u30fc\u30b9\u30c8\u30ea\u30c6\u30a4\u30ea\u30f3\u30b0
p2835
aV\u30d5\u30a9\u30fc\u30d0\u30eb\u30c6\u30ec\u30b3\u30e0
p2836
aV\u30d5\u30a9\u30b9\u30bf\u30fc\u96fb\u6a5f
p2837
aV\u30d5\u30a9\u30fc\u30ab\u30b9\u30b7\u30b9\u30c6\u30e0\u30ba
p2838
aV\u30d5\u30a3\u30fc\u30eb\u30ba
p2839
aV\u30d5\u30a7\u30ed\u30fc\u30c6\u30c3\u30af
p2840
aV\u30d5\u30a7\u30a4\u30b9
p2841
aV\u30d8\u30ea\u30aa\u30b9\u3000\u30c6\u30af\u30ce\u3000\u30db\u30fc\u30eb\u30c7\u30a3\u30f3\u30b0
p2842
aV\u30d5\u30a9\u30fc\u30d0\u30eb
p2843
aV\u30d5\u30a9\u30fc\u30b5\u30a4\u30c9
p2844
aV\u30a4\u30de\u30b8\u30ab\u30fb\u30ed\u30dc\u30c3\u30c8\u3000\u30db\u30fc\u30eb\u30c7\u30a3\u30f3\u30b0\u30b9
p2845
aV\u30d5\u30a1\u30f3\u30c9\u30af\u30ea\u30a8\u30fc\u30b7\u30e7\u30f3\u30b0\u30eb\u30fc\u30d7
p2846
aV\u77f3\u5c71\uff27\uff41\uff54\uff45\uff57\uff41\uff59\u3000\uff28\uff4f\uff4c\uff44\uff49\uff4e\uff47\uff53
p2847
aV\u30d5\u30a7\u30ea\u30b7\u30e2
p2848
aV\u30d5\u30a3\u30c7\u30a2\u30db\u30fc\u30eb\u30c7\u30a3\u30f3\u30b0\u30b9
p2849
aV\u30d5\u30a3\u30c3\u30af\u30b9\u30bf\u30fc\u30ba
p2850
aV\u30d5\u30a3\u30fc\u30c9\u30fb\u30ef\u30f3\u30db\u30fc\u30eb\u30c7\u30a3\u30f3\u30b0\u30b9
p2851
aV\u30d5\u30a1\u30f3\u30b3\u30df\u30e5\u30cb\u30b1\u30fc\u30b7\u30e7\u30f3\u30ba
p2852
aV\u30a2\u30af\u30ea\u30fc\u30c6\u30a3\u30d6
p2853
aV\u30d5\u30a3\u30f3\u30c6\u30c3\u30af\u3000\u30b0\u30ed\u30fc\u30d0\u30eb
p2854
aV\u30d5\u30a3\u30b9\u30b3
p2855
aV\u30d5\u30a9\u30c8\u30af\u30ea\u30a8\u30a4\u30c8
p2856
aV\u798f\u4e95\u9280\u884c
p2857
aV\u798f\u5cf6\u5de5\u696d
p2858
aV\u798f\u7530\u7d44
p2859
aV\u798f\u4e95\u30b3\u30f3\u30d4\u30e5\u30fc\u30bf\u30db\u30fc\u30eb\u30c7\u30a3\u30f3\u30b0\u30b9
p2860
aV\u30d5\u30af\u30d3\u5316\u5b66\u5de5\u696d
p2861
aV\u30d5\u30af\u30c0\u96fb\u5b50
p2862
aV\u798f\u7559\u30cf\u30e0
p2863
aV\u798f\u5cf6\u5370\u5237
p2864
aV\u3075\u304f\u304a\u304b\u30d5\u30a3\u30ca\u30f3\u30b7\u30e3\u30eb\u30b0\u30eb\u30fc\u30d7
p2865
aV\u798f\u5cf6\u9280\u884c
p2866
aV\u798f\u5ca1\u4e2d\u592e\u9280\u884c
p2867
aV\u30d5\u30b8\u30aa\u30d5\u30fc\u30c9\u30b7\u30b9\u30c6\u30e0
p2868
aV\u4e0d\u4e8c\u785d\u5b50
p2869
aV\u30d5\u30b8
p2870
aV\u85e4\u4e95\u7523\u696d
p2871
aV\u30d5\u30b8\u30aa\u30fc\u30bc\u30c3\u30af\u30b9
p2872
aV\u30d5\u30b3\u30af
p2873
aV\u798f\u5c71\u901a\u904b
p2874
aV\u4f0f\u6728\u6d77\u9678\u904b\u9001
p2875
aV\u5bcc\u58eb\u6a5f\u5de5
p2876
aV\u5bcc\u58eb\u6a5f\u68b0\u88fd\u9020
p2877
aV\u798f\u5c71\u30b3\u30f3\u30b5\u30eb\u30bf\u30f3\u30c8
p2878
aV\u85e4\u5009\u5316\u6210
p2879
aV\u85e4\u5009\u30b4\u30e0\u5de5\u696d
p2880
aV\u30d5\u30b8\u30af\u30e9
p2881
aV\u5bcc\u58eb\u8208\u7523
p2882
aV\u5bcc\u58eb\u6025\u884c
p2883
aV\u30d5\u30b8\u30b3\u30fc
p2884
aV\uff26\uff35\uff2a\uff29\uff2b\uff2f\uff28
p2885
aV\u85e4\u4e45
p2886
aV\u30d5\u30b8\u30fb\u30b3\u30fc\u30dd\u30ec\u30fc\u30b7\u30e7\u30f3
p2887
aV\u30d5\u30b8\u30b7\u30fc\u30eb\u30a4\u30f3\u30bf\u30fc\u30ca\u30b7\u30e7\u30ca\u30eb
p2888
aV\u5bcc\u58eb\u91cd\u5de5\u696d
p2889
aV\u30d5\u30b8\u4f4f\u5b85
p2890
aV\u4e0d\u4e8c\u30b5\u30c3\u30b7
p2891
aV\u5bcc\u58eb\u30d5\u30a4\u30eb\u30e0\u30db\u30fc\u30eb\u30c7\u30a3\u30f3\u30b0\u30b9
p2892
aV\u4e0d\u4e8c\u8d8a
p2893
aV\u4e0d\u4e8c\u7cbe\u6a5f
p2894
aV\u30d5\u30b8\u30b3\u30d4\u30a2\u30f3
p2895
aV\u85e4\u5546\u4e8b
p2896
aV\u5bcc\u58eb\u901a\u30bc\u30cd\u30e9\u30eb
p2897
aV\u5bcc\u58eb\u901a\u30d3\u30fc\u30fb\u30a8\u30b9\u30fb\u30b7\u30fc
p2898
aV\u30d5\u30b8\u30bf\u30b3\u30fc\u30dd\u30ec\u30fc\u30b7\u30e7\u30f3
p2899
aV\u5bcc\u58eb\u901a
p2900
aV\u4e0d\u4e8c\u88fd\u6cb9
p2901
aV\u5bcc\u58eb\u30bd\u30d5\u30c8
p2902
aV\u85e4\u7530\u30a8\u30f3\u30b8\u30cb\u30a2\u30ea\u30f3\u30b0
p2903
aV\u5bcc\u58eb\u901a\u30d5\u30ed\u30f3\u30c6\u30c3\u30af
p2904
aV\u5bcc\u58eb\u7cbe\u5de5
p2905
aV\u85e4\u7530\u89b3\u5149
p2906
aV\u5bcc\u58eb\u88fd\u85ac\u5de5\u696d
p2907
aV\u5bcc\u58eb\u901a\u30b3\u30f3\u30dd\u30fc\u30cd\u30f3\u30c8
p2908
aV\u5bcc\u58eb\u96fb\u6a5f
p2909
aV\uff26\uff24\uff2b
p2910
aV\u30d5\u30b8\u30c8\u30df
p2911
aV\u5bcc\u58eb\u30d4\u30fc\u30fb\u30a8\u30b9
p2912
aV\u30d5\u30b8\u30fb\u30e1\u30c7\u30a3\u30a2\u30fb\u30db\u30fc\u30eb\u30c7\u30a3\u30f3\u30b0\u30b9
p2913
aV\u30d5\u30b8\u30c6\u30c3\u30af
p2914
aV\u4e0d\u4e8c\u96fb\u6a5f\u5de5\u696d
p2915
aV\u5bcc\u58eb\u53e4\u6cb3\uff25\uff06\uff23
p2916
aV\u5bcc\u58eb\u30c6\u30af\u30cb\u30ab\u5bae\u6d25
p2917
aV\u30d5\u30b8\u30c3\u30af\u30b9
p2918
aV\u30d5\u30b8\u30c3\u30b3
p2919
aV\u5bcc\u58eb\u5909\u901f\u6a5f
p2920
aV\u5bcc\u58eb\u7d21\u30db\u30fc\u30eb\u30c7\u30a3\u30f3\u30b0\u30b9
p2921
aV\u307f\u3089\u304b\u30db\u30fc\u30eb\u30c7\u30a3\u30f3\u30b0\u30b9
p2922
aV\u30d5\u30b8\u30d7\u30ec\u30a2\u30e0
p2923
aV\u85e4\u68ee\u5de5\u696d
p2924
aV\u4e0d\u4e8c\u30e9\u30c6\u30c3\u30af\u30b9
p2925
aV\u30e6\u30cb\u30d0\u30f3\u30b9
p2926
aV\u30d5\u30b8\u30de\u30c3\u30af
p2927
aV\u30d5\u30b8\u30df\u30a4\u30f3\u30b3\u30fc\u30dd\u30ec\u30fc\u30c6\u30c3\u30c9
p2928
aV\u4e0d\u4e8c\u5bb6
p2929
aV\u30d5\u30de\u30ad\u30e9\u30fc
p2930
aV\u30d5\u30e5\u30fc\u30c1\u30e3\u30fc\u30a2\u30fc\u30ad\u30c6\u30af\u30c8
p2931
aV\u6276\u6851\u5316\u5b66\u5de5\u696d
p2932
aV\u6276\u6851\u96fb\u901a
p2933
aV\u53cc\u8449\u96fb\u5b50\u5de5\u696d
p2934
aV\u4e0d\u52d5\u30c6\u30c8\u30e9
p2935
aV\u9752\u5c71\u8ca1\u7523\u30cd\u30c3\u30c8\u30ef\u30fc\u30af\u30b9
p2936
aV\u8239\u4e95\u7dcf\u7814\u30db\u30fc\u30eb\u30c7\u30a3\u30f3\u30b0\u30b9
p2937
aV\u30d5\u30e5\u30fc\u30c8\u30ec\u30c3\u30af
p2938
aV\u30d5\u30e5\u30fc\u30c1\u30e3\u30fc\u30d9\u30f3\u30c1\u30e3\u30fc\u30ad\u30e3\u30d4\u30bf\u30eb
p2939
aV\u30d5\u30bf\u30d0\u7523\u696d
p2940
aV\u6276\u6851\u85ac\u54c1\u5de5\u696d
p2941
aV\u8239\u4e95\u96fb\u6a5f
p2942
aV\u8299\u84c9\u7dcf\u5408\u30ea\u30fc\u30b9
p2943
aV\u30d5\u30e9\u30f3\u30b9\u30d9\u30c3\u30c9\u30db\u30fc\u30eb\u30c7\u30a3\u30f3\u30b0\u30b9
p2944
aV\u30d5\u30ea\u30fc\u30b8\u30a2\u30fb\u30de\u30af\u30ed\u30b9
p2945
aV\u53e4\u6cb3\u6a5f\u68b0\u91d1\u5c5e
p2946
aV\u30d5\u30e9\u30a4\u30c8\u30db\u30fc\u30eb\u30c7\u30a3\u30f3\u30b0\u30b9
p2947
aV\u30d5\u30ea\u30fc\u30d3\u30c3\u30c8
p2948
aV\u30d5\u30e9\u30a4\u30f3\u30b0\u30ac\u30fc\u30c7\u30f3
p2949
aV\u30d5\u30a9\u30fc\u30d0\u30eb\u30fb\u30ea\u30a2\u30eb\u30b9\u30c8\u30ec\u30fc\u30c8
p2950
aV\u30d5\u30ea\u30fc\u30af\u30a2\u30a6\u30c8
p2951
aV\u30d5\u30eb\u30b9\u30d4\u30fc\u30c9
p2952
aV\u30d5\u30eb\u30c3\u30bf\u30d5\u30eb\u30c3\u30bf
p2953
aV\u53e4\u91ce\u96fb\u6c17
p2954
aV\u30d5\u30eb\u30ad\u30e3\u30b9\u30c8\u30db\u30fc\u30eb\u30c7\u30a3\u30f3\u30b0\u30b9
p2955
aV\u5922\u30c6\u30af\u30ce\u30ed\u30b8\u30fc
p2956
aV\u53e4\u6797\u7d19\u5de5
p2957
aV\u30d5\u30eb\u30e4\u91d1\u5c5e
p2958
aV\u53e4\u6cb3\u96fb\u6c17\u5de5\u696d
p2959
aV\uff35\uff21\uff23\uff2a
p2960
aV\u53e4\u6cb3\u96fb\u6c60
p2961
aV\u30de\u30c3\u30af\u30b9\u30d0\u30ea\u30e5\u4e2d\u90e8
p2962
aV\u30d5\u30eb\u30b5\u30c8\u5de5\u696d
p2963
aV\u30d5\u30ec\u30f3\u30c6
p2964
aV\u30d6\u30a4\u30fb\u30c6\u30af\u30ce\u30ed\u30b8\u30fc
p2965
aV\u30d6\u30c3\u30af\u30aa\u30d5\u30b3\u30fc\u30dd\u30ec\u30fc\u30b7\u30e7\u30f3
p2966
aV\u30d6\u30eb\u30dc\u30f3
p2967
aV\u30a6\u30a7\u30c3\u30b8\u30db\u30fc\u30eb\u30c7\u30a3\u30f3\u30b0\u30b9
p2968
aV\u30d6\u30ec\u30a4\u30f3\u30d1\u30c3\u30c9
p2969
aV\u30d6\u30ed\u30fc\u30c9\u30d0\u30f3\u30c9\u30bf\u30ef\u30fc
p2970
aV\u30d6\u30ed\u30fc\u30c9\u30ea\u30fc\u30d5
p2971
aV\u30d6\u30ed\u30c3\u30b3\u30ea\u30fc
p2972
aV\u30d5\u30ec\u30f3\u30c9\u30ea\u30fc
p2973
aV\u30d5\u30ed\u30a4\u30f3\u30c8\u7523\u696d
p2974
aV\u30d6\u30e9\u30b6\u30fc\u5de5\u696d
p2975
aV\u30d6\u30ea\u30c2\u30b9\u30c8\u30f3
p2976
aV\u30d6\u30eb\u30c9\u30c3\u30af\u30bd\u30fc\u30b9
p2977
aV\u30d6\u30a4\u30ad\u30e5\u30fc\u30d6
p2978
aV\u3077\u3089\u3063\u3068\u30db\u30fc\u30e0
p2979
aV\u30d7\u30e9\u30c3\u30d7\u30b8\u30e3\u30d1\u30f3
p2980
aV\u6587\u5316\u30b7\u30e4\u30c3\u30bf\u30fc
p2981
aV\u6587\u6559\u5802\u30b0\u30eb\u30fc\u30d7\u30db\u30fc\u30eb\u30c7\u30a3\u30f3\u30b0\u30b9
p2982
aV\u30d6\u30ed\u30f3\u30b3\u30d3\u30ea\u30fc
p2983
aV\u30d7\u30e9\u30b6\u30af\u30ea\u30a8\u30a4\u30c8
p2984
aV\u30d7\u30e9\u30c3\u30c4
p2985
aV\u6587\u6eaa\u5802
p2986
aV\u30d7\u30e9\u30cd\u30c3\u30c8
p2987
aV\u30d7\u30e9\u30b3\u30fc
p2988
aV\u30d7\u30e9\u30de\u30c6\u30eb\u30ba
p2989
aV\u30cd\u30aa\u30b9
p2990
aV\u30d7\u30ea\u30de\u30cf\u30e0
p2991
aV\u30d7\u30ec\u30b5\u30f3\u30b9\u30b3\u30fc\u30dd\u30ec\u30fc\u30b7\u30e7\u30f3
p2992
aV\u30d7\u30ec\u30ca\u30b9
p2993
aV\u30d7\u30ed\u30b7\u30c3\u30d7
p2994
aV\uff29\uff27\u30dd\u30fc\u30c8
p2995
aV\u30d7\u30ed\u30d1\u30b9\u30c8
p2996
aV\u30d7\u30ed\u30c8\u30b3\u30fc\u30dd\u30ec\u30fc\u30b7\u30e7\u30f3
p2997
aV\u5e73\u5b89\u30ec\u30a4\u30b5\u30fc\u30d3\u30b9
p2998
aV\u30d7\u30ec\u30b9\u30c6\u30fc\u30b8\u30fb\u30a4\u30f3\u30bf\u30fc\u30ca\u30b7\u30e7\u30ca\u30eb
p2999
aV\u30d7\u30ec\u30b7\u30b8\u30e7\u30f3\u30fb\u30b7\u30b9\u30c6\u30e0\u30fb\u30b5\u30a4\u30a8\u30f3\u30b9
p3000
aV\u30d7\u30ec\u30b9\u5de5\u696d
p3001
aV\u30d7\u30ed\u30eb\u30fc\u30c8\u4e38\u5149
p3002
aV\u30d9\u30af\u30bf\u30fc
p3003
aV\u30d9\u30af\u30c8\u30eb
p3004
aV\u5e73\u548c\u5802
p3005
aV\u5e73\u548c\u4e0d\u52d5\u7523
p3006
aV\u30d9\u30ea\u30b5\u30fc\u30d6
p3007
aV\u30d9\u30cd\u30c3\u30bb\u30db\u30fc\u30eb\u30c7\u30a3\u30f3\u30b0\u30b9
p3008
aV\u30b8\u30fc\u30fb\u30c6\u30a4\u30b9\u30c8
p3009
aV\u30d9\u30cd\u30d5\u30a3\u30c3\u30c8\u30fb\u30ef\u30f3
p3010
aV\u5e73\u548c\u7d19\u696d
p3011
aV\u5e73\u548c
p3012
aV\u30d9\u30b9\u30c8\u96fb\u5668
p3013
aV\u30d3\u30fc\u30d4\u30fc\u30fb\u30ab\u30b9\u30c8\u30ed\u30fc\u30eb
p3014
aV\u30da\u30d7\u30c1\u30c9\u30ea\u30fc\u30e0
p3015
aV\u30d9\u30eb\u30d1\u30fc\u30af
p3016
aV\u5f01\u8b77\u58eb\u30c9\u30c3\u30c8\u30b3\u30e0
p3017
aV\u30da\u30c3\u30d1\u30fc\u30d5\u30fc\u30c9\u30b5\u30fc\u30d3\u30b9
p3018
aV\u30d9\u30eb\u30fc\u30ca
p3019
aV\u30c4\u30ab\u30c0\u30fb\u30b0\u30ed\u30fc\u30d0\u30eb\u30db\u30fc\u30eb\u30c7\u30a3\u30f3\u30b0
p3020
aV\u30da\u30ac\u30b5\u30b9\u30df\u30b7\u30f3\u88fd\u9020
p3021
aV\uff27\uff2d\uff2f\u30da\u30d1\u30dc
p3022
aV\u30d9\u30eb\u30af
p3023
aV\u30d9\u30eb\u30b0\u30a2\u30fc\u30b9
p3024
aV\u30db\u30a6\u30b9\u30a4
p3025
aV\u653e\u96fb\u7cbe\u5bc6\u52a0\u5de5\u7814\u7a76\u6240
p3026
aV\u8c4a\u548c\u5de5\u696d
p3027
aV\u30db\u30ae\u30e1\u30c7\u30a3\u30ab\u30eb
p3028
aV\u30db\u30fc\u30c1\u30ad
p3029
aV\uff2a\uff0d\u30aa\u30a4\u30eb\u30df\u30eb\u30ba
p3030
aV\u30db\u30a6\u30e9\u30a4
p3031
aV\u30db\u30fc\u30d6
p3032
aV\uff28\uff2f\uff39\uff21
p3033
aV\u30b0\u30ed\u30fc\u30d0\u30eb\u30a2\u30b8\u30a2\u30db\u30fc\u30eb\u30c7\u30a3\u30f3\u30b0\u30b9
p3034
aV\u8c4a\u548c\u9280\u884c
p3035
aV\u5317\u9678\u74e6\u65af
p3036
aV\u5317\u9678\u96fb\u6c17\u5de5\u696d
p3037
aV\u307b\u304f\u307b\u304f\u30d5\u30a3\u30ca\u30f3\u30b7\u30e3\u30eb\u30b0\u30eb\u30fc\u30d7
p3038
aV\u30db\u30af\u30b7\u30f3
p3039
aV\u5317\u96c4\u30e9\u30c3\u30ad\u30fc
p3040
aV\u5317\u6d0b\u9280\u884c
p3041
aV\u307b\u304f\u3084\u304f\u30fb\u7af9\u5c71\u30db\u30fc\u30eb\u30c7\u30a3\u30f3\u30b0\u30b9
p3042
aV\u30db\u30af\u30c8
p3043
aV\u5317\u8d8a\u7d00\u5dde\u88fd\u7d19
p3044
aV\u5317\u8d8a\u5de5\u696d
p3045
aV\u5317\u8d8a\u30e1\u30bf\u30eb
p3046
aV\u5317\u8d8a\u9280\u884c
p3047
aV\u30db\u30b7\u30c7\u30f3
p3048
aV\u30db\u30bd\u30ab\u30ef\u30df\u30af\u30ed\u30f3
p3049
aV\u30db\u30c3\u30ab\u30f3\u30db\u30fc\u30eb\u30c7\u30a3\u30f3\u30b0\u30b9
p3050
aV\u7d30\u8c37\u706b\u5de5
p3051
aV\u661f\u533b\u7642\u9178\u5668
p3052
aV\u5317\u9678\u96fb\u8a71\u5de5\u4e8b
p3053
aV\u30db\u30af\u30ea\u30e8\u30a6
p3054
aV\u30db\u30b7\u30b6\u30ad\u96fb\u6a5f
p3055
aV\u5317\u9678\u96fb\u6c17\u5de5\u4e8b
p3056
aV\u7d30\u7530\u5de5\u52d9\u5e97
p3057
aV\u5317\u9678\u96fb\u529b
p3058
aV\u5317\u6d77\u9053\u96fb\u529b
p3059
aV\u5317\u8208\u5316\u5b66\u5de5\u696d
p3060
aV\u5317\u570b\u9280\u884c
p3061
aV\u30db\u30c3\u30c8\u30de\u30f3
p3062
aV\u30db\u30c3\u30c8\u30e9\u30f3\u30c9
p3063
aV\u30db\u30c3\u30c8\u30ea\u30f3\u30af
p3064
aV\u30db\u30c6\u30eb\u3001\u30cb\u30e5\u30fc\u30b0\u30e9\u30f3\u30c9
p3065
aV\u5317\u6d77\u9053\u4e2d\u592e\u30d0\u30b9
p3066
aV\u5317\u6d77\u9053\u74e6\u65af
p3067
aV\u30db\u30ea\u30a4\u30d5\u30fc\u30c9\u30b5\u30fc\u30d3\u30b9
p3068
aV\u5317\u6d77\u9053\u30b3\u30ab\u30fb\u30b3\u30fc\u30e9\u30dc\u30c8\u30ea\u30f3\u30b0
p3069
aV\u4fdd\u571f\u8c37\u5316\u5b66\u5de5\u696d
p3070
aV\u5317\u6d77\u96fb\u6c17\u5de5\u4e8b
p3071
aV\uff36\uff2f\uff39\uff21\uff27\uff25\u3000\uff27\uff32\uff2f\uff35\uff30
p3072
aV\u30dc\u30eb\u30c6\u30fc\u30b8
p3073
aV\u30dd\u30fc\u30e9\u30fb\u30aa\u30eb\u30d3\u30b9\u30db\u30fc\u30eb\u30c7\u30a3\u30f3\u30b0\u30b9
p3074
aV\u30dd\u30fc\u30eb\u30c8\u30a5\u30a6\u30a3\u30f3\u30fb\u30d4\u30c3\u30c8\u30af\u30eb\u30fc\u30db\u30fc\u30eb\u30c7\u30a3\u30f3\u30b0\u30b9
p3075
aV\uff36\uff34\u30db\u30fc\u30eb\u30c7\u30a3\u30f3\u30b0\u30b9
p3076
aV\u7ffb\u8a33\u30bb\u30f3\u30bf\u30fc
p3077
aV\u30db\u30ed\u30f3
p3078
aV\u672c\u5dde\u5316\u5b66\u5de5\u696d
p3079
aV\u30dc\u30fc\u30bd\u30fc\u6cb9\u8102
p3080
aV\u30bd\u30fc\u30b7\u30e3\u30eb\u30fb\u30a8\u30b3\u30ed\u30b8\u30fc\u30fb\u30d7\u30ed\u30b8\u30a7\u30af\u30c8
p3081
aV\u30a2\u30c0\u30b9\u30c8\u30ea\u30a2
p3082
aV\u30dd\u30d0\u30fc\u30eb\u8208\u696d
p3083
aV\u6771\u845b\u30db\u30fc\u30eb\u30c7\u30a3\u30f3\u30b0\u30b9
p3084
aV\u672c\u591a\u901a\u4fe1\u5de5\u696d
p3085
aV\u5800\u5834\u88fd\u4f5c\u6240
p3086
aV\u672c\u7530\u6280\u7814\u5de5\u696d
p3087
aV\u30dd\u30e9\u30c6\u30af\u30ce
p3088
aV\u30de\u30fc\u30af\u30e9\u30a4\u30f3\u30ba
p3089
aV\u524d\u6fa4\u5316\u6210\u5de5\u696d
p3090
aV\u6bce\u65e5\u30b3\u30e0\u30cd\u30c3\u30c8
p3091
aV\u30de\u30fc\u30d9\u30e9\u30b9
p3092
aV\u30de\u30fc\u30b9\u30a8\u30f3\u30b8\u30cb\u30a2\u30ea\u30f3\u30b0
p3093
aV\u30dd\u30b1\u30c3\u30c8\u30ab\u30fc\u30c9
p3094
aV\u30de\u30a4\u30b9\u30bf\u30fc\u30a8\u30f3\u30b8\u30cb\u30a2\u30ea\u30f3\u30b0
p3095
aV\u30dd\u30d7\u30e9
p3096
aV\u30a4\u30aa\u30f3\u5317\u6d77\u9053
p3097
aV\u524d\u7530\u88fd\u4f5c\u6240
p3098
aV\u524d\u7530\u9053\u8def
p3099
aV\uff27\uff2d\uff2f\u30a2\u30c9\u30d1\u30fc\u30c8\u30ca\u30fc\u30ba
p3100
aV\u8aa0\u5efa\u8a2d\u5de5\u696d
p3101
aV\u7267\u91ce\u30d5\u30e9\u30a4\u30b9\u88fd\u4f5c\u6240
p3102
aV\u30de\u30ad\u30e4
p3103
aV\u30de\u30af\u30cb\u30ab\u30fb\u5bcc\u58eb\u30a8\u30ec\u30db\u30fc\u30eb\u30c7\u30a3\u30f3\u30b0\u30b9
p3104
aV\u524d\u6fa4\u7d66\u88c5\u5de5\u696d
p3105
aV\u524d\u7530\u5de5\u7e4a
p3106
aV\u524d\u7530\u5efa\u8a2d\u5de5\u696d
p3107
aV\uff34\uff2f\uff2e\uff25
p3108
aV\u524d\u6fa4\u5de5\u696d
p3109
aV\u30de\u30ad\u30bf
p3110
aV\u30de\u30c3\u30af\u30b9\u30d0\u30ea\u30e5\u6771\u5317
p3111
aV\u30de\u30c3\u30af\u30b9\u30d0\u30ea\u30e5\u897f\u65e5\u672c
p3112
aV\u30de\u30c3\u30af\u30b9
p3113
aV\u30de\u30c3\u30af\u30b9\u30d0\u30ea\u30e5\u4e5d\u5dde
p3114
aV\u30de\u30b5\u30eb
p3115
aV\u5897\u7530\u88fd\u7c89\u6240
p3116
aV\u677e\u4e95\u5efa\u8a2d
p3117
aV\u677e\u5c3e\u96fb\u6a5f
p3118
aV\u30d0\u30ca\u30fc\u30ba
p3119
aV\u30de\u30c3\u30af\u30cf\u30a6\u30b9
p3120
aV\u30d1\u30ca\u30bd\u30cb\u30c3\u30af
p3121
aV\u677e\u4e95\u8a3c\u5238
p3122
aV\u30de\u30c4\u30c0
p3123
aV\u677e\u7530\u7523\u696d
p3124
aV\u30d1\u30ca\u30bd\u30cb\u30c3\u30af\u3000\u30a4\u30f3\u30d5\u30a9\u30e1\u30fc\u30b7\u30e7\u30f3\u30b7\u30b9\u30c6\u30e0\u30ba
p3125
aV\u30de\u30c4\u30e2\u30c8\u30ad\u30e8\u30b7\u30db\u30fc\u30eb\u30c7\u30a3\u30f3\u30b0\u30b9
p3126
aV\u677e\u5c4b\u30d5\u30fc\u30ba
p3127
aV\u677e\u672c\u6cb9\u8102\u88fd\u85ac
p3128
aV\uff2d\uff2f\uff32\uff25\uff33\uff23\uff2f
p3129
aV\u30de\u30c4\u30e2\u30c8
p3130
aV\u30de\u30c4\u30e4
p3131
aV\u677e\u5c4b
p3132
aV\u30de\u30cd\u30fc\u30d1\u30fc\u30c8\u30ca\u30fc\u30ba\u30b0\u30eb\u30fc\u30d7
p3133
aV\u30de\u30cd\u30fc\u30b9\u30af\u30a6\u30a7\u30a2\uff28\uff24
p3134
aV\u30de\u30df\u30e4\u30fb\u30aa\u30fc\u30d4\u30fc
p3135
aV\u8c46\u8535\u30db\u30fc\u30eb\u30c7\u30a3\u30f3\u30b0\u30b9
p3136
aV\u4e38\u4e95\u30b0\u30eb\u30fc\u30d7
p3137
aV\u30de\u30df\u30fc\u30de\u30fc\u30c8
p3138
aV\u30de\u30ca\u30c3\u30af
p3139
aV\u30de\u30d6\u30c1\u30e2\u30fc\u30bf\u30fc
p3140
aV\u30de\u30cb\u30fc
p3141
aV\u30de\u30cd\u30c3\u30af\u30b9\u30b0\u30eb\u30fc\u30d7
p3142
aV\u30de\u30eb\u30ab\u30ad\u30ab\u30a4
p3143
aV\u4e38\u4e45
p3144
aV\u30de\u30eb\u30a4\u30c1\u7523\u5546
p3145
aV\u4e38\u4e00\u92fc\u7ba1
p3146
aV\u4e38\u5c3e\u30ab\u30eb\u30b7\u30a6\u30e0
p3147
aV\u30b8\u30e3\u30d1\u30f3\u30fb\u30d5\u30fc\u30c9\uff06\u30ea\u30ab\u30fc\u30fb\u30a2\u30e9\u30a4\u30a2\u30f3\u30b9
p3148
aV\u30de\u30eb\u30b3
p3149
aV\u4e38\u904b
p3150
aV\u30de\u30eb\u30ad\u30e7\u30a6
p3151
aV\u4e38\u6804
p3152
aV\u30de\u30eb\u30bf\u30a4
p3153
aV\u4e38\u5927\u98df\u54c1
p3154
aV\u4e38\u9806
p3155
aV\u4e38\u5168\u662d\u548c\u904b\u8f38
p3156
aV\u5800\u7530\u4e38\u6b63
p3157
aV\u30de\u30eb\u30bc\u30f3
p3158
aV\u4e38\u5343\u4ee3\u5c71\u5ca1\u5bb6
p3159
aV\u30de\u30eb\u30b7\u30a7
p3160
aV\u30de\u30eb\u30b5\u30f3\u30a2\u30a4
p3161
aV\u4e38\u4e09\u8a3c\u5238
p3162
aV\u4e38\u6771\u7523\u696d
p3163
aV\u30de\u30eb\u30cf\u30cb\u30c1\u30ed
p3164
aV\u4e38\u85e4\u30b7\u30fc\u30c8\u30d1\u30a4\u30eb
p3165
aV\u4e38\u7d05\u5efa\u6750\u30ea\u30fc\u30b9
p3166
aV\u4e38\u516b\u5009\u5eab
p3167
aV\u30de\u30eb\u30de\u30a8
p3168
aV\u4e38\u6587
p3169
aV\u30de\u30eb\u30de\u30f3
p3170
aV\u4e38\u516b\u8a3c\u5238
p3171
aV\u4e38\u7d05
p3172
aV\uff2d\uff21\uff32\uff35\uff37\uff21
p3173
aV\u842c\u4e16\u96fb\u6a5f
p3174
aV\u30de\u30eb\u30e8\u30b7\u30bb\u30f3\u30bf\u30fc
p3175
aV\u4e38\u548c\u904b\u8f38\u6a5f\u95a2
p3176
aV\u30de\u30f3\u30c0\u30e0
p3177
aV\u4e09\u6d66\u5de5\u696d
p3178
aV\u4e09\u6d66\u5370\u5237
p3179
aV\u4e38\u5c71\u88fd\u4f5c\u6240
p3180
aV\u30de\u30eb\u30df\u30e4\u30b9\u30c8\u30a2
p3181
aV\u307e\u3093\u3060\u3089\u3051
p3182
aV\u4e09\u91cd\u9280\u884c
p3183
aV\u30df\u30af\u30cb
p3184
aV\u30df\u30af\u30ed\u30f3\u7cbe\u5bc6
p3185
aV\u30df\u30b5\u30ef\u30db\u30fc\u30e0\u4e2d\u56fd
p3186
aV\u30df\u30af\u30b7\u30a3
p3187
aV\u4e09\u57ce\u30db\u30fc\u30eb\u30c7\u30a3\u30f3\u30b0\u30b9
p3188
aV\u30df\u30b5\u30ef\u30db\u30fc\u30e0
p3189
aV\u30ea\u30be\u30fc\u30c8\u30bd\u30ea\u30e5\u30fc\u30b7\u30e7\u30f3
p3190
aV\u7f8e\u6a39\u5de5\u696d
p3191
aV\u30df\u30b5\u30ef
p3192
aV\uff2d\uff52\uff2d\uff41\uff58
p3193
aV\u30df\u30b9\u30df\u30b0\u30eb\u30fc\u30d7\u672c\u793e
p3194
aV\u4e09\u8c37\u5546\u4e8b
p3195
aV\u4e09\u8c37\u30bb\u30ad\u30b5\u30f3
p3196
aV\u30df\u30bf\u30c1\u7523\u696d
p3197
aV\u5fa1\u5712\u5ea7
p3198
aV\u4e09\u8c37\u7523\u696d
p3199
aV\uff2d\uff49\uff53\uff55\uff4d\uff49
p3200
aV\u307f\u305a\u307b\u30d5\u30a3\u30ca\u30f3\u30b7\u30e3\u30eb\u30b0\u30eb\u30fc\u30d7
p3201
aV\u307f\u3061\u306e\u304f\u9280\u884c
p3202
aV\u65e5\u672c\u30b3\u30fc\u30af\u30b9\u5de5\u696d
p3203
aV\u4e09\u4e95\u91d1\u5c5e\u30a8\u30f3\u30b8\u30cb\u30a2\u30ea\u30f3\u30b0
p3204
aV\u30b0\u30ea\u30fc\u30f3\u30e9\u30f3\u30c9\u30ea\u30be\u30fc\u30c8
p3205
aV\u4e09\u4e95\u91d1\u5c5e\u9271\u696d
p3206
aV\u4e09\u4e95\u6d77\u6d0b\u958b\u767a
p3207
aV\u4e09\u4e95\u5316\u5b66
p3208
aV\u4e09\u4e95\u4f4f\u53cb\u5efa\u8a2d
p3209
aV\u4e09\u4e95\u4f4f\u53cb\u30d5\u30a3\u30ca\u30f3\u30b7\u30e3\u30eb\u30b0\u30eb\u30fc\u30d7
p3210
aV\uff2d\uff33\uff06\uff21\uff24\u30a4\u30f3\u30b7\u30e5\u30a2\u30e9\u30f3\u30b9\u30b0\u30eb\u30fc\u30d7\u30db\u30fc\u30eb\u30c7\u30a3\u30f3\u30b0\u30b9
p3211
aV\u4e09\u4e95\u88fd\u7cd6
p3212
aV\u4e09\u4e95\u9020\u8239
p3213
aV\u30c6\u30a3\u30fc\u30ac\u30a4\u30a2
p3214
aV\u4e09\u4e95\u5009\u5eab\u30db\u30fc\u30eb\u30c7\u30a3\u30f3\u30b0\u30b9
p3215
aV\u4e09\u4e95\u4e0d\u52d5\u7523
p3216
aV\u4e09\u4e95\u30cf\u30a4\u30c6\u30c3\u30af
p3217
aV\u4e09\u4e95\u4f4f\u5efa\u9053\u8def
p3218
aV\u4e09\u4e95\u7269\u7523
p3219
aV\u4e09\u4e95\u4f4f\u53cb\u30c8\u30e9\u30b9\u30c8\u30fb\u30db\u30fc\u30eb\u30c7\u30a3\u30f3\u30b0\u30b9
p3220
aV\u30df\u30c4\u30a6\u30ed\u30b3\u30b0\u30eb\u30fc\u30d7\u30db\u30fc\u30eb\u30c7\u30a3\u30f3\u30b0\u30b9
p3221
aV\u4e09\u8d8a\u4f0a\u52e2\u4e39\u30db\u30fc\u30eb\u30c7\u30a3\u30f3\u30b0\u30b9
p3222
aV\u4e09\u4e95\u677e\u5cf6\u7523\u696d
p3223
aV\u4e09\u83f1\u74e6\u65af\u5316\u5b66
p3224
aV\u4e09\u83f1\u5316\u5de5\u6a5f
p3225
aV\u4e09\u83f1\u925b\u7b46
p3226
aV\u4e09\u30c4\u77e5
p3227
aV\u30df\u30c4\u30d0
p3228
aV\u4e09\u4e95\u30db\u30fc\u30e0
p3229
aV\uff30\uff2c\uff21\uff2e\uff34
p3230
aV\u4e09\u83f1\u7dcf\u5408\u7814\u7a76\u6240
p3231
aV\u4e09\u83f1\u5730\u6240
p3232
aV\u4e09\u83f1\u5009\u5eab
p3233
aV\u4e09\u83f1\u30b1\u30df\u30ab\u30eb\u30db\u30fc\u30eb\u30c7\u30a3\u30f3\u30b0\u30b9
p3234
aV\u4e09\u83f1\u88fd\u7d19
p3235
aV\u4e09\u83f1\u91cd\u5de5\u696d
p3236
aV\u4e09\u83f1\u81ea\u52d5\u8eca\u5de5\u696d
p3237
aV\u4e09\u83f1\u88fd\u92fc
p3238
aV\u4e09\u83f1\u5546\u4e8b
p3239
aV\u4e09\u30c4\u661f\u30d9\u30eb\u30c8
p3240
aV\u7f8e\u6d25\u6fc3
p3241
aV\u4e09\u83f1\u30de\u30c6\u30ea\u30a2\u30eb
p3242
aV\u30df\u30c4\u30df\u96fb\u6a5f
p3243
aV\u5149\u6751\u5370\u5237
p3244
aV\u4e09\u30c3\u661f
p3245
aV\u4e09\u83f1\u96fb\u6a5f
p3246
aV\u4e09\u83f1\uff35\uff26\uff2a\u30d5\u30a3\u30ca\u30f3\u30b7\u30e3\u30eb\u30fb\u30b0\u30eb\u30fc\u30d7
p3247
aV\u6c34\u6238\u8a3c\u5238
p3248
aV\u30df\u30cd\u30d9\u30a2
p3249
aV\u7f8e\u6fc3\u7aaf\u696d
p3250
aV\u30df\u30de\u30ad\u30a8\u30f3\u30b8\u30cb\u30a2\u30ea\u30f3\u30b0
p3251
aV\u5bae\u5165\u30d0\u30eb\u30d6\u88fd\u4f5c\u6240
p3252
aV\u4e09\u76ca\u534a\u5c0e\u4f53\u5de5\u696d
p3253
aV\u30df\u30cb\u30b9\u30c8\u30c3\u30d7
p3254
aV\u30df\u30ca\u30c8\u30a8\u30ec\u30af\u30c8\u30ed\u30cb\u30af\u30b9
p3255
aV\u5357\u65e5\u672c\u9280\u884c
p3256
aV\u307f\u306a\u3068\u9280\u884c
p3257
aV\u30df\u30e8\u30b7\u6cb9\u8102
p3258
aV\u30df\u30e9\u30a4\u30a2\u30eb
p3259
aV\u672a\u6765\u5de5\u696d
p3260
aV\u30df\u30e9\u30a4\u30c8\u30fb\u30db\u30fc\u30eb\u30c7\u30a3\u30f3\u30b0\u30b9
p3261
aV\u30df\u30e4\u30b3
p3262
aV\u5bae\u8d8a\u30db\u30fc\u30eb\u30c7\u30a3\u30f3\u30b0\u30b9
p3263
aV\u30df\u30e5\u30fc\u30c1\u30e5\u30a2\u30eb
p3264
aV\u5999\u5fb3
p3265
aV\u5bae\u5730\u30a8\u30f3\u30b8\u30cb\u30a2\u30ea\u30f3\u30b0\u30b0\u30eb\u30fc\u30d7
p3266
aV\u30df\u30eb\u30dc\u30f3
p3267
aV\u5bae\u5d0e\u9280\u884c
p3268
aV\u5bae\u5d0e\u592a\u967d\u9280\u884c
p3269
aV\u30df\u30ed\u30af
p3270
aV\u307f\u3093\u306a\u306e\u30a6\u30a7\u30c7\u30a3\u30f3\u30b0
p3271
aV\u30e0\u30b2\u30f3\u30a8\u30b9\u30c6\u30fc\u30c8
p3272
aV\u30e0\u30b5\u30b7
p3273
aV\u30e0\u30fc\u30f3\u30d0\u30c3\u30c8
p3274
aV\u30e0\u30c8\u30fc\u7cbe\u5de5
p3275
aV\u6b66\u8535\u91ce\u8208\u696d
p3276
aV\u30df\u30ed\u30af\u60c5\u5831\u30b5\u30fc\u30d3\u30b9
p3277
aV\u6b66\u8535\u7cbe\u5bc6\u5de5\u696d
p3278
aV\u6b66\u8535\u91ce\u9280\u884c
p3279
aV\u6771\u4eac\u6d77\u4e0a\u30db\u30fc\u30eb\u30c7\u30a3\u30f3\u30b0\u30b9
p3280
aV\uff2d\uff35\uff34\uff2f\uff28\u30db\u30fc\u30eb\u30c7\u30a3\u30f3\u30b0\u30b9
p3281
aV\u6751\u4e0a\u958b\u660e\u5802
p3282
aV\u30e1\u30a4\u30b3\u30fc
p3283
aV\u540d\u6e2f\u6d77\u904b
p3284
aV\u30e0\u30ed\u30b3\u30fc\u30dd\u30ec\u30fc\u30b7\u30e7\u30f3
p3285
aV\u660e\u5149\u30cd\u30c3\u30c8\u30ef\u30fc\u30af\u30b8\u30e3\u30d1\u30f3
p3286
aV\u30b9\u30af\u30ed\u30fc\u30eb
p3287
aV\u540d\u6a5f\u88fd\u4f5c\u6240
p3288
aV\u30e0\u30e9\u30ad
p3289
aV\u6751\u7530\u88fd\u4f5c\u6240
p3290
aV\u540d\u5de5\u5efa\u8a2d
p3291
aV\u540d\u9244\u904b\u8f38
p3292
aV\u30e1\u30a4\u30c6\u30c3\u30af
p3293
aV\u660e\u661f\u96fb\u6c17
p3294
aV\u660e\u96fb\u820e
p3295
aV\u660e\u6cbb\u6d77\u904b
p3296
aV\u540d\u7cd6\u904b\u8f38
p3297
aV\u660e\u6cbb\u30db\u30fc\u30eb\u30c7\u30a3\u30f3\u30b0\u30b9
p3298
aV\u660e\u6cbb\u96fb\u6a5f\u5de5\u696d
p3299
aV\u660e\u661f\u5de5\u696d
p3300
aV\u660e\u6cbb\u6a5f\u68b0
p3301
aV\u660e\u548c\u5730\u6240
p3302
aV\u30e1\u30ac\u30c1\u30c3\u30d7\u30b9
p3303
aV\u30e1\u30c3\u30c4
p3304
aV\u30e1\u30c7\u30a3\u30a2\u30b7\u30fc\u30af
p3305
aV\u660e\u548c\u7523\u696d
p3306
aV\u660e\u8c4a\u30d5\u30a1\u30b7\u30ea\u30c6\u30a3\u30ef\u30fc\u30af\u30b9
p3307
aV\u30e1\u30c3\u30af
p3308
aV\u76df\u548c\u7523\u696d
p3309
aV\u660e\u8c4a\u30a8\u30f3\u30bf\u30fc\u30d7\u30e9\u30a4\u30ba
p3310
aV\u540d\u7cd6\u7523\u696d
p3311
aV\u30e1\u30bf\u30eb\u30a2\u30fc\u30c8
p3312
aV\u30e1\u30c7\u30a3\u30a2\u30b0\u30ed\u30fc\u30d0\u30eb\u30ea\u30f3\u30af\u30b9
p3313
aV\u30e1\u30c7\u30a3\u30a2\u5de5\u623f
p3314
aV\u30e1\u30c3\u30bb\u30fc\u30b8
p3315
aV\u30e1\u30c7\u30a3\u30ab\u30eb\u4e00\u5149
p3316
aV\u30e1\u30c7\u30a3\u30ab\u30eb\u30b7\u30b9\u30c6\u30e0\u30cd\u30c3\u30c8\u30ef\u30fc\u30af
p3317
aV\u30e1\u30c7\u30a3\u30ad\u30c3\u30c8
p3318
aV\u30e1\u30c7\u30a3\u30a2\u30d5\u30a1\u30a4\u30d6
p3319
aV\u30e1\u30c7\u30a3\u30cd\u30c3\u30c8
p3320
aV\u30e1\u30eb\u30b3\u30db\u30fc\u30eb\u30c7\u30a3\u30f3\u30b0\u30b9
p3321
aV\u30e1\u30c7\u30a3\u30d3\u30c3\u30af\u30b0\u30eb\u30fc\u30d7
p3322
aV\u30e1\u30ac\u30cd\u30b9\u30fc\u30d1\u30fc
p3323
aV\u30e1\u30c9\u30ec\u30c3\u30af\u30b9
p3324
aV\u30e1\u30c7\u30a3\u30a2\u30c9\u30a5
p3325
aV\u30e1\u30c9\u30d4\u30a2
p3326
aV\u30e1\u30c7\u30a3\u30ab\u30eb\u30fb\u30c7\u30fc\u30bf\u30fb\u30d3\u30b8\u30e7\u30f3
p3327
aV\u30e1\u30bf\u30a6\u30a9\u30fc\u30bf\u30fc
p3328
aV\u30e1\u30ac\u30ed\u30b9
p3329
aV\u30e1\u30c7\u30a3\u30a2\u30d5\u30e9\u30c3\u30b0
p3330
aV\u514d\u75ab\u751f\u7269\u7814\u7a76\u6240
p3331
aV\u30e1\u30f3\u30d0\u30fc\u30ba
p3332
aV\u3082\u3057\u3082\u3057\u30db\u30c3\u30c8\u30e9\u30a4\u30f3
p3333
aV\u6301\u7530\u88fd\u85ac
p3334
aV\u7269\u8a9e\u30b3\u30fc\u30dd\u30ec\u30fc\u30b7\u30e7\u30f3
p3335
aV\u30e2\u30b9\u30d5\u30fc\u30c9\u30b5\u30fc\u30d3\u30b9
p3336
aV\u30e2\u30b8\u30e5\u30ec
p3337
aV\u30e2\u30fc\u30cb\u30f3\u30b0\u30b9\u30bf\u30fc
p3338
aV\uff2d\uff4f\uff4e\uff4f\uff54\uff41\uff32\uff2f
p3339
aV\u30e2\u30d0\u30a4\u30eb\u30af\u30ea\u30a8\u30a4\u30c8
p3340
aV\u30e2\u30d6\u30ad\u30e3\u30b9\u30c8
p3341
aV\u30e2\u30d0\u30a4\u30eb\u30d5\u30a1\u30af\u30c8\u30ea\u30fc
p3342
aV\u68ee\u5c3e\u96fb\u6a5f
p3343
aV\u30e2\u30ea\u30bf\u30db\u30fc\u30eb\u30c7\u30a3\u30f3\u30b0\u30b9
p3344
aV\u30e2\u30ea\u30c6\u30c3\u30af\u3000\u30b9\u30c1\u30fc\u30eb
p3345
aV\u68ee\u4e0b\u4ec1\u4e39
p3346
aV\uff24\uff2d\uff27\u68ee\u7cbe\u6a5f
p3347
aV\u30e2\u30ea\u5de5\u696d
p3348
aV\u30b7\u30e7\u30c3\u30c8\u30e2\u30ea\u30c6\u30c3\u30af\u30b9
p3349
aV\u68ee\u7d44
p3350
aV\u713c\u6d25\u6c34\u7523\u5316\u5b66\u5de5\u696d
p3351
aV\u30e4\u30aa\u30b3\u30fc
p3352
aV\u30e2\u30eb\u30d5\u30a9
p3353
aV\u30e2\u30ed\u30be\u30d5
p3354
aV\u30de\u30c3\u30af\u30b9\u30d0\u30ea\u30e5\u6771\u6d77
p3355
aV\u68ee\u6c38\u4e73\u696d
p3356
aV\u68ee\u6c38\u88fd\u83d3
p3357
aV\u30e4\u30fc\u30de\u30f3
p3358
aV\u30e2\u30ea\u30c8
p3359
aV\u30a2\u30b8\u30a2\u30b0\u30ed\u30fc\u30b9\u30ad\u30e3\u30d4\u30bf\u30eb
p3360
aV\u5b88\u8c37\u5546\u4f1a
p3361
aV\u516b\u6d32\u96fb\u6a5f
p3362
aV\u5b89\u7530\u5009\u5eab
p3363
aV\u30e4\u30ac\u30df
p3364
aV\u5b89\u5ddd\u60c5\u5831\u30b7\u30b9\u30c6\u30e0
p3365
aV\u30e4\u30ae
p3366
aV\u5b89\u6c38
p3367
aV\u30e4\u30af\u30eb\u30c8\u672c\u793e
p3368
aV\u5b89\u5ddd\u96fb\u6a5f
p3369
aV\u85ac\u738b\u5802
p3370
aV\u30e4\u30de\u30a8\u4e45\u91ce
p3371
aV\u77e2\u4f5c\u5efa\u8a2d\u5de5\u696d
p3372
aV\u30e4\u30de\u30a6
p3373
aV\u516b\u5343\u4ee3\u5de5\u696d
p3374
aV\u30e4\u30b9\u30cf\u30e9\u30b1\u30df\u30ab\u30eb
p3375
aV\u30e4\u30d5\u30fc
p3376
aV\u5c71\u4e00\u96fb\u6a5f
p3377
aV\u5c71\u52a0\u96fb\u696d
p3378
aV\u30e4\u30de\u30a6\u30e9
p3379
aV\u30e4\u30de\u30b7\u30ca
p3380
aV\u30e4\u30de\u30b7\u30f3\u30d5\u30a3\u30eb\u30bf
p3381
aV\u5c71\u5584
p3382
aV\u30e4\u30de\u30b6\u30ad
p3383
aV\u5c71\u5d0e\u88fd\u30d1\u30f3
p3384
aV\u5c71\u4e0b\u533b\u79d1\u5668\u68b0
p3385
aV\u5c71\u559c
p3386
aV\u30e4\u30de\u30b6\u30ef
p3387
aV\u5c71\u53e3\u30d5\u30a3\u30ca\u30f3\u30b7\u30e3\u30eb\u30b0\u30eb\u30fc\u30d7
p3388
aV\u5c71\u5f62\u9280\u884c
p3389
aV\u30a2\u30ba\u30d3\u30eb
p3390
aV\u30e4\u30de\u30c0\u96fb\u6a5f
p3391
aV\u30e4\u30de\u30c0\u30b3\u30fc\u30dd\u30ec\u30fc\u30b7\u30e7\u30f3
p3392
aV\u30e4\u30de\u30c8\u30a4\u30f3\u30bf\u30fc\u30ca\u30b7\u30e7\u30ca\u30eb
p3393
aV\u30e4\u30de\u30c8\u30fb\u30a4\u30f3\u30c0\u30b9\u30c8\u30ea\u30fc
p3394
aV\u30e4\u30de\u30c3\u30af\u30b9
p3395
aV\u5c71\u5927
p3396
aV\u5c71\u7530\u50b5\u6a29\u56de\u53ce\u7ba1\u7406\u7dcf\u5408\u4e8b\u52d9\u6240
p3397
aV\u30e4\u30de\u30bf\u30cd
p3398
aV\u3084\u307e\u306d\u30e1\u30c7\u30a3\u30ab\u30eb
p3399
aV\u30a2\u30b9\u30c6\u30e9\u30b9\u88fd\u85ac
p3400
aV\u30e4\u30de\u30cf\u767a\u52d5\u6a5f
p3401
aV\u5927\u548c\u5de5\u696d
p3402
aV\u30e4\u30de\u30cf
p3403
aV\u3084\u307e\u3073\u3053
p3404
aV\u30e4\u30de\u30c8\u30db\u30fc\u30eb\u30c7\u30a3\u30f3\u30b0\u30b9
p3405
aV\u30e4\u30de\u30c8
p3406
aV\u30e4\u30de\u30ca\u30ab
p3407
aV\u5c71\u68a8\u4e2d\u592e\u9280\u884c
p3408
aV\uff35\uff23\uff33
p3409
aV\u30e6\u30fc\u30b7\u30f3
p3410
aV\u30e6\u30fc\u30fb\u30a8\u30b9\u30fb\u30a8\u30b9
p3411
aV\uff35\uff2d\uff2e\u30d5\u30a1\u30fc\u30de
p3412
aV\u30e6\u30fc\u30af\u30b9
p3413
aV\uff35\uff2b\uff23\u30db\u30fc\u30eb\u30c7\u30a3\u30f3\u30b0\u30b9
p3414
aV\uff35\uff22\uff29\uff23
p3415
aV\uff35\uff0d\uff2e\uff25\uff38\uff34
p3416
aV\u3084\u307e\u3084
p3417
aV\u30e6\u30fc\u30b7\u30f3\u7cbe\u6a5f
p3418
aV\u30e6\u30a2\u30b5\u5546\u4e8b
p3419
aV\u30e6\u30fc\u30e9\u30b7\u30a2\u65c5\u884c\u793e
p3420
aV\u30e6\u30fc\u30b0\u30ec\u30ca
p3421
aV\u30e6\u30a2\u30b5\u30fb\u30d5\u30ca\u30b7\u30e7\u30af
p3422
aV\u90f5\u8239\u30ed\u30b8\u30b9\u30c6\u30a3\u30af\u30b9
p3423
aV\u30e6\u30b7\u30ed\u5316\u5b66\u5de5\u696d
p3424
aV\u6cb9\u7814\u5de5\u696d
p3425
aV\uff35\uff33\uff25\uff2e
p3426
aV\u6709\u6a5f\u5408\u6210\u85ac\u54c1\u5de5\u696d
p3427
aV\u30e6\u30a2\u30c6\u30c3\u30af
p3428
aV\u96ea\u56fd\u307e\u3044\u305f\u3051
p3429
aV\u96ea\u5370\u30e1\u30b0\u30df\u30eb\u30af
p3430
aV\u30e6\u30bf\u30ab\u30d5\u30fc\u30ba
p3431
aV\u30e6\u30ca\u30a4\u30c6\u30c3\u30c9\u30a2\u30ed\u30fc\u30ba
p3432
aV\u30e6\u30ca\u30a4\u30c6\u30c3\u30c9\u30fb\u30b9\u30fc\u30d1\u30fc\u30de\u30fc\u30b1\u30c3\u30c8\u30fb\u30db\u30fc\u30eb\u30c7\u30a3\u30f3\u30b0\u30b9
p3433
aV\uff35\uff34\u30db\u30fc\u30eb\u30c7\u30a3\u30f3\u30b0\u30b9
p3434
aV\u30e6\u30bf\u30ab\u6280\u7814
p3435
aV\u30e6\u30cb\u30fc\u30b0\u30eb\u30fc\u30d7\u30fb\u30db\u30fc\u30eb\u30c7\u30a3\u30f3\u30b0\u30b9
p3436
aV\u30e6\u30cb\u30fb\u30c1\u30e3\u30fc\u30e0
p3437
aV\u30e6\u30cb\u30c1\u30ab
p3438
aV\u30e6\u30cb\u30aa\u30f3\u30c4\u30fc\u30eb
p3439
aV\u8c4a\u5546\u4e8b
p3440
aV\u30e6\u30cb\u30ab\u30d5\u30a7
p3441
aV\u30b0\u30ea\u30e0\u30b9
p3442
aV\u5922\u306e\u8857\u5275\u9020\u59d4\u54e1\u4f1a
p3443
aV\u30e6\u30cb\u30c7\u30f3
p3444
aV\u30e6\u30cb\u30d0\u30fc\u30b5\u30eb\u5712\u82b8\u793e
p3445
aV\u30e8\u30fc\u30bf\u30a4
p3446
aV\u5922\u307f\u3064\u3051\u968a
p3447
aV\u30e6\u30cb\u30d7\u30ec\u30b9
p3448
aV\u30e6\u30d3\u30ad\u30bf\u30b9
p3449
aV\u30e6\u30cb\u30d0\u30fc\u30b5\u30eb\u30bd\u30ea\u30e5\u30fc\u30b7\u30e7\u30f3\u30b7\u30b9\u30c6\u30e0\u30ba
p3450
aV\u5922\u771f\u30db\u30fc\u30eb\u30c7\u30a3\u30f3\u30b0\u30b9
p3451
aV\u5922\u5c55\u671b
p3452
aV\u6a2a\u6cb3\u30d6\u30ea\u30c3\u30b8\u30db\u30fc\u30eb\u30c7\u30a3\u30f3\u30b0\u30b9
p3453
aV\u6a2a\u7530\u88fd\u4f5c\u6240
p3454
aV\u990a\u547d\u9152\u88fd\u9020
p3455
aV\u5e7c\u5150\u6d3b\u52d5\u7814\u7a76\u4f1a
p3456
aV\u6a2a\u6d5c\u30b4\u30e0
p3457
aV\u6a2a\u6cb3\u96fb\u6a5f
p3458
aV\uff21\uff33\uff29\uff21\uff2e\u3000\uff33\uff34\uff21\uff32
p3459
aV\u30e8\u30b3\u30aa
p3460
aV\u6a2a\u6d5c\u9b5a\u985e
p3461
aV\u6a2a\u6d5c\u9280\u884c
p3462
aV\u30e8\u30b7\u30bf\u30b1
p3463
aV\u30e8\u30b7\u30c3\u30af\u30b9
p3464
aV\u30e8\u30cd\u30c3\u30af\u30b9
p3465
aV\u30e8\u30b7\u30b3\u30f3
p3466
aV\u6dc0\u5ddd\u88fd\u92fc\u6240
p3467
aV\u3088\u307f\u3046\u308a\u30e9\u30f3\u30c9
p3468
aV\u5409\u91ce\u5bb6\u30db\u30fc\u30eb\u30c7\u30a3\u30f3\u30b0\u30b9
p3469
aV\u7c73\u4e45
p3470
aV\u6a2a\u6d5c\u4e38\u9b5a
p3471
aV\u6a2a\u6d5c\u51b7\u51cd
p3472
aV\u30e9\u30a4\u30c8\u5de5\u696d
p3473
aV\u30e9\u30a4\u30c9\u30aa\u30f3\u30fb\u30a8\u30af\u30b9\u30d7\u30ec\u30b9
p3474
aV\u30e9\u30a4\u30aa\u30f3
p3475
aV\u30e9\u30a4\u30c8\u30aa\u30f3
p3476
aV\u30e9\u30a4\u30d5\u30b3\u30fc\u30dd\u30ec\u30fc\u30b7\u30e7\u30f3
p3477
aV\u30e9\u30a4\u30d5\u30cd\u30c3\u30c8\u751f\u547d\u4fdd\u967a
p3478
aV\u30e9\u30fb\u30a2\u30c8\u30ec
p3479
aV\u30e8\u30f3\u30ad\u30e5\u30a6
p3480
aV\u30e9\u30a6\u30f3\u30c9\u30ef\u30f3
p3481
aV\u56db\u96fb\u5de5
p3482
aV\u30e8\u30ed\u30ba
p3483
aV\u30e9\u30a4\u30d5\u30d5\u30fc\u30ba
p3484
aV\u30a2\u30fc\u30af\u30b9
p3485
aV\u30e9\u30f3\u30b7\u30b9\u30c6\u30e0
p3486
aV\u30e9\u30af\u30fc\u30f3
p3487
aV\u30e9\u30af\u30aa\u30ea\u30a2\u5275\u85ac
p3488
aV\u30e9\u30b5\u5546\u4e8b
p3489
aV\u30e9\u30c3\u30af
p3490
aV\u30e9\u30b5\u5de5\u696d
p3491
aV\u30e9\u30d4\u30fc\u30cc
p3492
aV\u30e9\u30c3\u30af\u30e9\u30f3\u30c9
p3493
aV\u30e9\u30aa\u30c3\u30af\u30b9
p3494
aV\u697d\u5929
p3495
aV\u30e9\u30f3\u30c9
p3496
aV\u30e9\u30f3\u30c9\u30d3\u30b8\u30cd\u30b9
p3497
aV\u30ea\u30fc\u30c9
p3498
aV\u30ea\u30fc\u30d0\u30a4\u30fb\u30b9\u30c8\u30e9\u30a6\u30b9\u3000\u30b8\u30e3\u30d1\u30f3
p3499
aV\uff32\uff36\uff28
p3500
aV\u30ea\u30a2\u30eb\u30ef\u30fc\u30eb\u30c9
p3501
aV\u7406\u7d4c
p3502
aV\u30ea\u30b1\u30f3
p3503
aV\u30b3\u30b9\u30e2\u30b9\u30a4\u30cb\u30b7\u30a2
p3504
aV\u30ea\u30af\u30eb\u30fc\u30c8\u30db\u30fc\u30eb\u30c7\u30a3\u30f3\u30b0\u30b9
p3505
aV\u30ea\u30fc\u30ac\u30eb\u30b3\u30fc\u30dd\u30ec\u30fc\u30b7\u30e7\u30f3
p3506
aV\u30ea\u30aa\u30f3
p3507
aV\u30ea\u30fc\u30c0\u30fc\u96fb\u5b50
p3508
aV\u30ea\u30a2\u30eb\u30b3\u30e0
p3509
aV\u30ea\u30b3\u30fc\u30ea\u30fc\u30b9
p3510
aV\u30ea\u30b9\u30af\u30e2\u30f3\u30b9\u30bf\u30fc
p3511
aV\u7406\u7814\u8a08\u5668
p3512
aV\u7406\u7814\u30b3\u30e9\u30f3\u30c0\u30e0
p3513
aV\u7406\u7814\u30b0\u30ea\u30fc\u30f3
p3514
aV\u30ea\u30b1\u30f3\u30c6\u30af\u30ce\u30b9
p3515
aV\u7406\u7814\u30d3\u30bf\u30df\u30f3
p3516
aV\u30ea\u30ba\u30e0\u6642\u8a08\u5de5\u696d
p3517
aV\u30ea\u30bd\u30fc\u6559\u80b2
p3518
aV\u30ea\u30b3\u30fc
p3519
aV\u7406\u60f3\u79d1\u5b66\u5de5\u696d
p3520
aV\u30ea\u30d2\u30c8\u30e9\u30d6
p3521
aV\u30ea\u30d6\u30bb\u30f3\u30b9
p3522
aV\u30ea\u30d7\u30ed\u30bb\u30eb
p3523
aV\u30ea\u30d9\u30ec\u30b9\u30c6
p3524
aV\u30ea\u30dc\u30df\u30c3\u30af
p3525
aV\u30ea\u30be\u30fc\u30c8\u30c8\u30e9\u30b9\u30c8
p3526
aV\u30ea\u30cb\u30ab\u30eb
p3527
aV\u30ea\u30c3\u30af\u30b9
p3528
aV\u30ea\u30c3\u30af\u30b3\u30fc\u30dd\u30ec\u30fc\u30b7\u30e7\u30f3
p3529
aV\u30ea\u30d0\u30fc\u30a8\u30ec\u30c6\u30c3\u30af
p3530
aV\u30ea\u30df\u30c3\u30af\u30b9\u30dd\u30a4\u30f3\u30c8
p3531
aV\u7409\u7403\u9280\u884c
p3532
aV\u826f\u54c1\u8a08\u753b
p3533
aV\u4e21\u6bdb\u30b7\u30b9\u30c6\u30e0\u30ba
p3534
aV\u83f1\u53cb\u30b7\u30b9\u30c6\u30e0\u30ba
p3535
aV\u83f1\u6d0b\u30a8\u30ec\u30af\u30c8\u30ed
p3536
aV\u30ea\u30e7\u30fc\u30b5\u30f3
p3537
aV\u30ea\u30f3\u30af\u30a2\u30f3\u30c9\u30e2\u30c1\u30d9\u30fc\u30b7\u30e7\u30f3
p3538
aV\u30ea\u30f3\u30af\u30d0\u30eb
p3539
aV\u4e09\u83f1\u98df\u54c1
p3540
aV\u30ea\u30e7\u30fc\u30d3
p3541
aV\u83f1\u96fb\u5546\u4e8b
p3542
aV\u30ea\u30ea\u30ab\u30e9
p3543
aV\u30ea\u30f3\u30ac\u30fc\u30cf\u30c3\u30c8
p3544
aV\u30ec\u30fc\u30b6\u30fc\u30c6\u30c3\u30af
p3545
aV\u30ec\u30a2\u30b8\u30e7\u30d6
p3546
aV\u30ec\u30fc\u30b5\u30e0
p3547
aV\u30ec\u30b7\u30c3\u30d7\u30db\u30fc\u30eb\u30c7\u30a3\u30f3\u30b0\u30b9
p3548
aV\u30ea\u30f3\u30ca\u30a4
p3549
aV\u30ea\u30f3\u30c6\u30c3\u30af
p3550
aV\u30eb\u30cd\u30b5\u30f3\u30b9
p3551
aV\u30ec\u30a4
p3552
aV\u30ea\u30f3\u30b3\u30fc\u30b3\u30fc\u30dd\u30ec\u30fc\u30b7\u30e7\u30f3
p3553
aV\u30ec\u30ab\u30e0
p3554
aV\u30ec\u30aa\u30f3\u81ea\u52d5\u6a5f
p3555
aV\u30ed\u30fc\u30bd\u30f3
p3556
aV\u30ed\u30fc\u30c4\u30a7
p3557
aV\u30ed\u30fc\u30c8\u88fd\u85ac
p3558
aV\u30ed\u30fc\u30e0
p3559
aV\u30ed\u30fc\u30e4\u30eb\u96fb\u6a5f
p3560
aV\u30ed\u30fc\u30e9\u30f3\u30c9\u3000\u30c7\u30a3\u30fc\uff0e\u30b8\u30fc\uff0e
p3561
aV\u30ec\u30f3\u30b4\u30fc
p3562
aV\u30eb\u30c3\u30af
p3563
aV\u30ec\u30c3\u30b0\u30b9
p3564
aV\u30ec\u30c7\u30a4\u85ac\u5c40
p3565
aV\u30ec\u30ca\u30a6\u30f3
p3566
aV\u30ec\u30f3\u30c8\u30e9\u30c3\u30af\u30b9
p3567
aV\u30ed\u30b8\u30cd\u30c3\u30c8\u3000\u30b8\u30e3\u30d1\u30f3
p3568
aV\u30ed\u30c3\u30af\u30aa\u30f3
p3569
aV\u30ed\u30c3\u30af\u30fb\u30d5\u30a3\u30fc\u30eb\u30c9
p3570
aV\u30ed\u30c3\u30af\u30da\u30a4\u30f3\u30c8
p3571
aV\u30ed\u30b8\u30b3\u30e0
p3572
aV\u30ed\u30a4\u30e4\u30eb\u30db\u30fc\u30eb\u30c7\u30a3\u30f3\u30b0\u30b9
p3573
aV\u30ed\u30f3\u30b7\u30fc\u30eb\u5de5\u696d
p3574
aV\u30ed\u30d6\u30c6\u30c3\u30af\u30b9
p3575
aV\u30ed\u30a4\u30e4\u30eb\u30db\u30c6\u30eb
p3576
aV\u516d\u7532\u30d0\u30bf\u30fc
p3577
aV\u30ef\u30a4\u30a8\u30b9\u30d5\u30fc\u30c9
p3578
aV\u30ef\u30a4\u30e4\u30ec\u30b9\u30b2\u30fc\u30c8
p3579
aV\u30ef\u30fc\u30af\u30de\u30f3
p3580
aV\uff37\uff2f\uff37\uff2f\uff37
p3581
aV\u30ef\u30a4\u30a8\u30a4\u30b7\u30a4
p3582
aV\u30ef\u30fc\u30eb\u30c9\u30db\u30fc\u30eb\u30c7\u30a3\u30f3\u30b0\u30b9
p3583
aV\uff39\uff2b\uff34
p3584
aV\u30ef\u30a4\u30ba\u30c6\u30fc\u30d6\u30eb\u30b3\u30fc\u30dd\u30ec\u30fc\u30b7\u30e7\u30f3
p3585
aV\u548c\u4e95\u7530\u88fd\u4f5c\u6240
p3586
aV\u30ef\u30a4\u30fb\u30a4\u30fc\u30fb\u30c7\u30fc\u30bf
p3587
aV\u65e9\u7a32\u7530\u30a2\u30ab\u30c7\u30df\u30fc
p3588
aV\u30ef\u30b3\u30e0
p3589
aV\u4f50\u85e4\u6e21\u8fba
p3590
aV\u30ef\u30b3\u30fc\u30eb\u30db\u30fc\u30eb\u30c7\u30a3\u30f3\u30b0\u30b9
p3591
aV\u308f\u304b\u3082\u3068\u88fd\u85ac
p3592
aV\u82e5\u7bc9\u5efa\u8a2d
p3593
aV\u30ef\u30ad\u30bf
p3594
aV\u548c\u5f18\u98df\u54c1
p3595
aV\u7dbf\u534a\u30db\u30fc\u30eb\u30c7\u30a3\u30f3\u30b0\u30b9
p3596
aV\u30ef\u30bf\u30d9\u30a6\u30a7\u30c7\u30a3\u30f3\u30b0
p3597
aV\u30ef\u30bf\u30df
p3598
aV\u548c\u7530\u8208\u7523
p3599
aV\u30ef\u30c3\u30c4
p3600
aV\u30ef\u30c3\u30c8\u30de\u30f3
p3601
aV\u308f\u3089\u3079\u3084\u65e5\u6d0b
p3602
aV\u30ef\u30f3\u30c0\u30fc\u30b3\u30fc\u30dd\u30ec\u30fc\u30b7\u30e7\u30f3
p3603
aV\u30ef\u30a4\u30fb\u30c6\u30a3\u30fc\u30fb\u30a8\u30eb\u30fb\u30b3\u30fc\u30dd\u30ec\u30fc\u30b7\u30e7\u30f3\u30fb\u30d0\u30fc\u30cf\u30c3\u30c9
p3604
aV\u78a7
p3605
aVJapaninvest Group plc
p3606
aV\u30a2\u30ad\u30e5\u30bb\u30e9\u30fb\u30a4\u30f3\u30af
p3607
aV\u30b6\u30fb\u30c0\u30a6\u30fb\u30b1\u30df\u30ab\u30eb\u30fb\u30ab\u30f3\u30d1\u30cb\u30fc
p3608
aV\u30e1\u30c7\u30a3\u30b7\u30ce\u30d0\u30fb\u30a4\u30f3\u30af
p3609
aV\u30dd\u30b9\u30b3\u3000\u7c73\u56fd\u9810\u8a17\u8a3c\u5238
p3610
aV\u30b8\u30a7\u30fc\u30fb\u30d4\u30fc\u30fb\u30e2\u30eb\u30ac\u30f3\u30fb\u30c1\u30a7\u30fc\u30b9\u30fb\u30a2\u30f3\u30c9\u30fb\u30ab\u30f3\u30d1\u30cb\u30fc
p3611
aV\u30d0\u30f3\u30af\u30fb\u30aa\u30d6\u30fb\u30a2\u30e1\u30ea\u30ab\u30fb\u30b3\u30fc\u30dd\u30ec\u30fc\u30b7\u30e7\u30f3
p3612
aV\u30a2\u30e1\u30ea\u30ab\u30f3\u30fb\u30a4\u30f3\u30bf\u30fc\u30ca\u30b7\u30e7\u30ca\u30eb\u30fb\u30b0\u30eb\u30fc\u30d7\u30fb\u30a4\u30f3\u30af
p3613
aV\u30a2\u30d5\u30e9\u30c3\u30af\u30fb\u30a4\u30f3\u30b3\u30fc\u30dd\u30ec\u30fc\u30c6\u30c3\u30c9
p3614
aV\u30b7\u30c6\u30a3\u30b0\u30eb\u30fc\u30d7\u30fb\u30a4\u30f3\u30af
p3615
aVXinhua Holdings Ltd
p3616
a.